0000000000314480 V DW.ref.__gxx_personality_v0
00000000003137d0 d _DYNAMIC
0000000000313a10 d _GLOBAL_OFFSET_TABLE_
000000000002f067 t _GLOBAL__sub_D_00099_0__ZN16ConnexionManagerC2Ev
000000000005a671 t _GLOBAL__sub_D_00099_0__ZN19ServerConfigurationC2Ev
0000000000025b55 t _GLOBAL__sub_D_00099_0__ZN3CGIC2Ev
0000000000056a62 t _GLOBAL__sub_D_00099_0__ZN5RouteC2Ev
00000000000c63e4 t _GLOBAL__sub_D_00099_0__ZN5Utils10pathExistsERKNSt7__cxx1112basic_stringIcSt11char_traitsIcESaIcEEE
00000000000cd760 t _GLOBAL__sub_D_00099_0__ZN5Utils16get_current_timeB5cxx11Ev
00000000000c75f6 t _GLOBAL__sub_D_00099_0__ZN5Utils4quitENSt7__cxx1112basic_stringIcSt11char_traitsIcESaIcEEE
00000000000cc178 t _GLOBAL__sub_D_00099_0__ZN5Utils5splitERKNSt7__cxx1112basic_stringIcSt11char_traitsIcESaIcEEES7_
00000000000b3810 t _GLOBAL__sub_D_00099_0__ZN6ServerC2Ev
0000000000048792 t _GLOBAL__sub_D_00099_0__ZN7RequestC2Ev
0000000000053602 t _GLOBAL__sub_D_00099_0__ZN8ResponseC2Ev
000000000004ea37 t _GLOBAL__sub_D_00099_0__ZN9AutoIndexC2ERKNSt7__cxx1112basic_stringIcSt11char_traitsIcESaIcEEES7_
0000000000041da5 t _GLOBAL__sub_D_00099_0__ZNK7Webserv16isServBlockStartERKNSt7__cxx1112basic_stringIcSt11char_traitsIcESaIcEEE
000000000003c5f3 t _GLOBAL__sub_D_00099_0_webserv
000000000002f07e t _GLOBAL__sub_I_00099_1__ZN16ConnexionManagerC2Ev
000000000005a688 t _GLOBAL__sub_I_00099_1__ZN19ServerConfigurationC2Ev
0000000000025b6c t _GLOBAL__sub_I_00099_1__ZN3CGIC2Ev
0000000000056a79 t _GLOBAL__sub_I_00099_1__ZN5RouteC2Ev
00000000000c63fb t _GLOBAL__sub_I_00099_1__ZN5Utils10pathExistsERKNSt7__cxx1112basic_stringIcSt11char_traitsIcESaIcEEE
00000000000cd777 t _GLOBAL__sub_I_00099_1__ZN5Utils16get_current_timeB5cxx11Ev
00000000000c760d t _GLOBAL__sub_I_00099_1__ZN5Utils4quitENSt7__cxx1112basic_stringIcSt11char_traitsIcESaIcEEE
00000000000cc18f t _GLOBAL__sub_I_00099_1__ZN5Utils5splitERKNSt7__cxx1112basic_stringIcSt11char_traitsIcESaIcEEES7_
00000000000b3827 t _GLOBAL__sub_I_00099_1__ZN6ServerC2Ev
00000000000487a9 t _GLOBAL__sub_I_00099_1__ZN7RequestC2Ev
0000000000053619 t _GLOBAL__sub_I_00099_1__ZN8ResponseC2Ev
000000000004ea4e t _GLOBAL__sub_I_00099_1__ZN9AutoIndexC2ERKNSt7__cxx1112basic_stringIcSt11char_traitsIcESaIcEEES7_
0000000000041dbc t _GLOBAL__sub_I_00099_1__ZNK7Webserv16isServBlockStartERKNSt7__cxx1112basic_stringIcSt11char_traitsIcESaIcEEE
000000000003c60a t _GLOBAL__sub_I_00099_1_webserv
000000000002f052 t _GLOBAL__sub_I__ZN16ConnexionManagerC2Ev
000000000005a65c t _GLOBAL__sub_I__ZN19ServerConfigurationC2Ev
0000000000025b40 t _GLOBAL__sub_I__ZN3CGIC2Ev
0000000000056a4d t _GLOBAL__sub_I__ZN5RouteC2Ev
00000000000c63cf t _GLOBAL__sub_I__ZN5Utils10pathExistsERKNSt7__cxx1112basic_stringIcSt11char_traitsIcESaIcEEE
00000000000cd74b t _GLOBAL__sub_I__ZN5Utils16get_current_timeB5cxx11Ev
00000000000c75e1 t _GLOBAL__sub_I__ZN5Utils4quitENSt7__cxx1112basic_stringIcSt11char_traitsIcESaIcEEE
00000000000cc163 t _GLOBAL__sub_I__ZN5Utils5splitERKNSt7__cxx1112basic_stringIcSt11char_traitsIcESaIcEEES7_
00000000000b37fb t _GLOBAL__sub_I__ZN6ServerC2Ev
000000000004877d t _GLOBAL__sub_I__ZN7RequestC2Ev
00000000000535ed t _GLOBAL__sub_I__ZN8ResponseC2Ev
000000000004ea22 t _GLOBAL__sub_I__ZN9AutoIndexC2ERKNSt7__cxx1112basic_stringIcSt11char_traitsIcESaIcEEES7_
0000000000041d90 t _GLOBAL__sub_I__ZNK7Webserv16isServBlockStartERKNSt7__cxx1112basic_stringIcSt11char_traitsIcESaIcEEE
000000000003c5de t _GLOBAL__sub_I_webserv
00000000000cd840 R _IO_stdin_used
                 w _ITM_deregisterTMCloneTable
                 w _ITM_registerTMCloneTable
                 U _Unwind_Resume@@GCC_3.0
0000000000025ae6 t _Z41__static_initialization_and_destruction_0ii
000000000002eff8 t _Z41__static_initialization_and_destruction_0ii
000000000003c55b t _Z41__static_initialization_and_destruction_0ii
0000000000041d36 t _Z41__static_initialization_and_destruction_0ii
0000000000048723 t _Z41__static_initialization_and_destruction_0ii
000000000004e9c8 t _Z41__static_initialization_and_destruction_0ii
0000000000053593 t _Z41__static_initialization_and_destruction_0ii
00000000000569f3 t _Z41__static_initialization_and_destruction_0ii
000000000005a602 t _Z41__static_initialization_and_destruction_0ii
00000000000b37a1 t _Z41__static_initialization_and_destruction_0ii
00000000000c6375 t _Z41__static_initialization_and_destruction_0ii
00000000000c7587 t _Z41__static_initialization_and_destruction_0ii
00000000000cc109 t _Z41__static_initialization_and_destruction_0ii
00000000000cd6f1 t _Z41__static_initialization_and_destruction_0ii
000000000003c13e T _Z4quiti
000000000002ae4c T _ZN16ConnexionManager10getServersEv
000000000002dbfe T _ZN16ConnexionManager24handleIncompleteRequestsE6fd_set
000000000002bd18 T _ZN16ConnexionManager3runEv
000000000002ec24 T _ZN16ConnexionManager5cleanEv
000000000002ae5a T _ZN16ConnexionManager5setupEv
000000000002ae26 T _ZN16ConnexionManager9addServerE6Server
000000000002aca6 T _ZN16ConnexionManagerC1Ev
000000000002aca6 T _ZN16ConnexionManagerC2Ev
000000000002ad66 T _ZN16ConnexionManagerD1Ev
000000000002ad66 T _ZN16ConnexionManagerD2Ev
0000000000059118 T _ZN19ServerConfiguration10setDefaultEb
00000000000579da T _ZN19ServerConfiguration11init_errorsEv
0000000000059762 T _ZN19ServerConfiguration13setServerRootERKNSt7__cxx1112basic_stringIcSt11char_traitsIcESaIcEEE
00000000000591ba T _ZN19ServerConfiguration18addCustomErrorPageEiNSt7__cxx1112basic_stringIcSt11char_traitsIcESaIcEEE
0000000000058862 T _ZN19ServerConfiguration26init_default_error_contentEv
0000000000059190 T _ZN19ServerConfiguration7setHostERKNSt7__cxx1112basic_stringIcSt11char_traitsIcESaIcEEE
0000000000059166 T _ZN19ServerConfiguration7setNameERKNSt7__cxx1112basic_stringIcSt11char_traitsIcESaIcEEE
000000000005970e T _ZN19ServerConfiguration7setPortEi
00000000000599a6 T _ZN19ServerConfiguration8addRouteE5Route
00000000000575d0 T _ZN19ServerConfigurationC1ERKS_
0000000000057134 T _ZN19ServerConfigurationC1Ev
00000000000575d0 T _ZN19ServerConfigurationC2ERKS_
0000000000057134 T _ZN19ServerConfigurationC2Ev
00000000000578be T _ZN19ServerConfigurationD1Ev
00000000000578be T _ZN19ServerConfigurationD2Ev
00000000000bea64 W _ZN19ServerConfigurationaSERKS_
00000000000248a6 T _ZN3CGI15addMetaVariableENSt7__cxx1112basic_stringIcSt11char_traitsIcESaIcEEES5_
00000000000248e6 T _ZN3CGI18doubleStringToCharESt3mapINSt7__cxx1112basic_stringIcSt11char_traitsIcESaIcEEES6_St4lessIS6_ESaISt4pairIKS6_S6_EEE
0000000000024f76 T _ZN3CGI29convertHeadersToMetaVariablesE7Request
00000000000242d0 T _ZN3CGI7executeENSt7__cxx1112basic_stringIcSt11char_traitsIcESaIcEEE
00000000000242a2 T _ZN3CGI8setInputENSt7__cxx1112basic_stringIcSt11char_traitsIcESaIcEEE
0000000000024f46 T _ZN3CGI9getOutputB5cxx11Ev
0000000000024274 T _ZN3CGI9setBinaryENSt7__cxx1112basic_stringIcSt11char_traitsIcESaIcEEE
0000000000023fde T _ZN3CGIC1ERKS_
0000000000023eba T _ZN3CGIC1Ev
0000000000023fde T _ZN3CGIC2ERKS_
0000000000023eba T _ZN3CGIC2Ev
000000000002422a T _ZN3CGID0Ev
0000000000024106 T _ZN3CGID1Ev
0000000000024106 T _ZN3CGID2Ev
00000000000552d2 T _ZN5Route11setLocalURLERKNSt7__cxx1112basic_stringIcSt11char_traitsIcESaIcEEE
0000000000055382 T _ZN5Route11setUserFileERKNSt7__cxx1112basic_stringIcSt11char_traitsIcESaIcEEE
0000000000056570 T _ZN5Route12acceptMethodENSt7__cxx1112basic_stringIcSt11char_traitsIcESaIcEEE
0000000000054d9e T _ZN5Route12setAutoIndexEb
0000000000055300 T _ZN5Route12setCGIBinaryERKNSt7__cxx1112basic_stringIcSt11char_traitsIcESaIcEEE
00000000000553b0 T _ZN5Route12setRouteLangERKSt6vectorINSt7__cxx1112basic_stringIcSt11char_traitsIcESaIcEEESaIS6_EE
00000000000553de T _ZN5Route14setMaxBodySizeEj
0000000000054cb8 T _ZN5Route14setRequireAuthEb
0000000000055358 T _ZN5Route15addCGIExtensionERKNSt7__cxx1112basic_stringIcSt11char_traitsIcESaIcEEE
0000000000054df6 T _ZN5Route15enableAutoIndexEv
0000000000054e46 T _ZN5Route16disableAutoIndexEv
000000000005532e T _ZN5Route16setCGIExtensionsERKSt6vectorINSt7__cxx1112basic_stringIcSt11char_traitsIcESaIcEEESaIS6_EE
0000000000054c8e T _ZN5Route17addAcceptedMethodERKNSt7__cxx1112basic_stringIcSt11char_traitsIcESaIcEEE
0000000000054d0a T _ZN5Route17enableRequireAuthEv
0000000000054d54 T _ZN5Route18disableRequireAuthEv
0000000000054c64 T _ZN5Route18setAcceptedMethodsERKSt6vectorINSt7__cxx1112basic_stringIcSt11char_traitsIcESaIcEEESaIS6_EE
0000000000054e96 T _ZN5Route8setIndexERKNSt7__cxx1112basic_stringIcSt11char_traitsIcESaIcEEE
0000000000054ec0 T _ZN5Route8setRouteERKNSt7__cxx1112basic_stringIcSt11char_traitsIcESaIcEEES7_
00000000000546c0 T _ZN5RouteC1ERKS_
000000000005404c T _ZN5RouteC1Ev
00000000000546c0 T _ZN5RouteC2ERKS_
000000000005404c T _ZN5RouteC2Ev
0000000000054c1a T _ZN5RouteD0Ev
0000000000054aaa T _ZN5RouteD1Ev
0000000000054aaa T _ZN5RouteD2Ev
000000000005efba W _ZN5RouteaSERKS_
00000000000cbc41 T _ZN5Utils10dec_to_hexB5cxx11Ei
00000000000c7c61 T _ZN5Utils10ft_isspaceEc
00000000000cbeb1 T _ZN5Utils10hex_to_decENSt7__cxx1112basic_stringIcSt11char_traitsIcESaIcEEE
00000000000c52be T _ZN5Utils10pathExistsERKNSt7__cxx1112basic_stringIcSt11char_traitsIcESaIcEEE
00000000000c5c53 T _ZN5Utils11canOpenFileENSt7__cxx1112basic_stringIcSt11char_traitsIcESaIcEEE
00000000000c5ab5 T _ZN5Utils11isDirectoryERKNSt7__cxx1112basic_stringIcSt11char_traitsIcESaIcEEE
00000000000c7e0d T _ZN5Utils11is_alphanumENSt7__cxx1112basic_stringIcSt11char_traitsIcESaIcEEE
00000000000c867c T _ZN5Utils11remove_charERNSt7__cxx1112basic_stringIcSt11char_traitsIcESaIcEEES5_
000000000032ebc0 D _ZN5Utils11whitespacesE
00000000000c8263 T _ZN5Utils13base64_decodeERKNSt7__cxx1112basic_stringIcSt11char_traitsIcESaIcEEE
00000000000cb9ba T _ZN5Utils13divise_stringENSt7__cxx1112basic_stringIcSt11char_traitsIcESaIcEEEj
00000000000c5917 T _ZN5Utils13isRegularFileERKNSt7__cxx1112basic_stringIcSt11char_traitsIcESaIcEEE
00000000000c9848 T _ZN5Utils14bool_to_stringB5cxx11Eb
00000000000b5cbc W _ZN5Utils14find_in_vectorINSt7__cxx1112basic_stringIcSt11char_traitsIcESaIcEEES6_EEbSt6vectorIT_SaIS8_EET0_
00000000000c5417 T _ZN5Utils14getFileContentERKNSt7__cxx1112basic_stringIcSt11char_traitsIcESaIcEEE
00000000000c890a T _ZN5Utils14string_to_boolENSt7__cxx1112basic_stringIcSt11char_traitsIcESaIcEEE
00000000000c9c13 T _ZN5Utils15getCommonValuesESt6vectorINSt7__cxx1112basic_stringIcSt11char_traitsIcESaIcEEESaIS6_EES8_
00000000000c5e92 T _ZN5Utils15getLastModifiedERKNSt7__cxx1112basic_stringIcSt11char_traitsIcESaIcEEE
00000000000cd4ac T _ZN5Utils16get_current_timeB5cxx11Ev
00000000000cb515 T _ZN5Utils17receivedLastChunkERNSt7__cxx1112basic_stringIcSt11char_traitsIcESaIcEEE
00000000000c617a T _ZN5Utils18get_file_extensionENSt7__cxx1112basic_stringIcSt11char_traitsIcESaIcEEE
00000000000cb0bf T _ZN5Utils18is_positive_numberENSt7__cxx1112basic_stringIcSt11char_traitsIcESaIcEEE
00000000000cb729 T _ZN5Utils20extractContentLengthERKNSt7__cxx1112basic_stringIcSt11char_traitsIcESaIcEEE
00000000000c8f91 T _ZN5Utils4joinESt3mapINSt7__cxx1112basic_stringIcSt11char_traitsIcESaIcEEES6_St4lessIS6_ESaISt4pairIKS6_S6_EEE
00000000000c8af9 T _ZN5Utils4joinESt6vectorINSt7__cxx1112basic_stringIcSt11char_traitsIcESaIcEEESaIS6_EE
00000000000c7544 T _ZN5Utils4quitENSt7__cxx1112basic_stringIcSt11char_traitsIcESaIcEEE
00000000000c7dcc T _ZN5Utils4trimERNSt7__cxx1112basic_stringIcSt11char_traitsIcESaIcEEE
00000000000c7d83 T _ZN5Utils5ltrimERNSt7__cxx1112basic_stringIcSt11char_traitsIcESaIcEEE
00000000000c7d32 T _ZN5Utils5rtrimERNSt7__cxx1112basic_stringIcSt11char_traitsIcESaIcEEE
00000000000c762e T _ZN5Utils5splitERKNSt7__cxx1112basic_stringIcSt11char_traitsIcESaIcEEES7_
00000000000cafd5 T _ZN5Utils6memcpyEPvS0_m
00000000000cb35a T _ZN5Utils7replaceENSt7__cxx1112basic_stringIcSt11char_traitsIcESaIcEEES5_S5_
00000000000cae28 T _ZN5Utils7reverseERNSt7__cxx1112basic_stringIcSt11char_traitsIcESaIcEEE
00000000000cb401 T _ZN5Utils8checkEndERKNSt7__cxx1112basic_stringIcSt11char_traitsIcESaIcEEES7_
00000000000c9a42 T _ZN5Utils8colorifyB5cxx11Eb
00000000000c9a19 T _ZN5Utils8colorifyENSt7__cxx1112basic_stringIcSt11char_traitsIcESaIcEEE
00000000000c7dee T _ZN5Utils8is_alphaEc
00000000000c7c8a T _ZN5Utils8is_emptyENSt7__cxx1112basic_stringIcSt11char_traitsIcESaIcEEE
00000000000c8059 T _ZN5Utils8to_lowerERNSt7__cxx1112basic_stringIcSt11char_traitsIcESaIcEEE
00000000000c815e T _ZN5Utils8to_upperERNSt7__cxx1112basic_stringIcSt11char_traitsIcESaIcEEE
00000000000c7950 T _ZN5Utils9split_anyERKNSt7__cxx1112basic_stringIcSt11char_traitsIcESaIcEEES7_
00000000000c9fb0 T _ZN5Utils9to_stringB5cxx11Ec
00000000000ca16b T _ZN5Utils9to_stringB5cxx11Ei
00000000000ca9c3 T _ZN5Utils9to_stringB5cxx11El
00000000000ca5ac T _ZN5Utils9to_stringB5cxx11Em
0000000000065c12 T _ZN6Server11getVHConfigERKNSt7__cxx1112basic_stringIcSt11char_traitsIcESaIcEEE
0000000000065b9e T _ZN6Server11resetSocketEl
00000000000719dc T _ZN6Server12getLocalPathB5cxx11E7Request5Route
000000000007c0b2 T _ZN6Server12initMIMETypeEv
000000000006f74c T _ZN6Server12sendResponseER8ResponseR19ServerConfigurationl
00000000000666fc T _ZN6Server14addVirtualHostE19ServerConfiguration
0000000000070190 T _ZN6Server14isCharsetValidE7Request
000000000007886c T _ZN6Server14requestIsValidER8Response7RequestR5Route
0000000000065e80 T _ZN6Server15findVirtualHostERKSt3mapINSt7__cxx1112basic_stringIcSt11char_traitsIcESaIcEEES6_St4lessIS6_ESaISt4pairIKS6_S6_EEE
0000000000065c04 T _ZN6Server15getVirtualHostsEv
000000000006780a T _ZN6Server15setResponseBodyER8ResponseRK7RequestR5RouteR19ServerConfiguration
000000000007ab2c T _ZN6Server16credentialsMatchERKNSt7__cxx1112basic_stringIcSt11char_traitsIcESaIcEEES7_
000000000006aec2 T _ZN6Server16handleGETRequestER8ResponseRK7RequestR5RouteR19ServerConfiguration
0000000000068108 T _ZN6Server16handlePUTRequestERK7RequestR8ResponseRKNSt7__cxx1112basic_stringIcSt11char_traitsIcESaIcEEER19ServerConfiguration
000000000007a4f4 T _ZN6Server16isMethodAcceptedE7RequestR5Route
00000000000694aa T _ZN6Server17handlePOSTRequestER8ResponseRK7RequestR5RouteR19ServerConfiguration
0000000000073094 T _ZN6Server17requestRequireCGIE7Request5Route
0000000000065e60 T _ZN6Server18getDefaultVHConfigEv
000000000006677c T _ZN6Server18setResponseHeadersER8ResponseR5RouteR7Request
000000000007868e T _ZN6Server19generateRedirectionER8ResponseR19ServerConfiguration
0000000000069036 T _ZN6Server19handleDELETERequestER8ResponseRKNSt7__cxx1112basic_stringIcSt11char_traitsIcESaIcEEER19ServerConfiguration
0000000000079c50 T _ZN6Server19handleRequestErrorsER8ResponseR5RouteR19ServerConfiguration
000000000006db76 T _ZN6Server19sendChunkedResponseER8ResponseiiR19ServerConfigurationl
0000000000073874 T _ZN6Server21generateMetaVariablesER3CGIR7RequestR5RouteR19ServerConfiguration
0000000000070da0 T _ZN6Server22findCorrespondingRouteENSt7__cxx1112basic_stringIcSt11char_traitsIcESaIcEEER19ServerConfiguration
00000000000778c2 T _ZN6Server25requestRequireRedirectionE7RequestR5Route
000000000007a6c2 T _ZN6Server26handleUnauthorizedRequestsER8ResponseR19ServerConfiguration
00000000000639ec T _ZN6Server4recvEl
00000000000628f6 T _ZN6Server4sendEl
00000000000628a2 T _ZN6Server5cleanEv
0000000000061884 T _ZN6Server5setupEv
0000000000065230 T _ZN6Server6acceptEv
000000000007210a T _ZN6Server7execCGIB5cxx11E7RequestR5RouteR19ServerConfiguration
000000000007b6f4 T _ZN6Server8check403E7Request5Route
00000000000615c8 T _ZN6ServerC1ERKS_
00000000000614e2 T _ZN6ServerC1Ev
00000000000615c8 T _ZN6ServerC2ERKS_
00000000000614e2 T _ZN6ServerC2Ev
00000000000617c0 T _ZN6ServerD1Ev
00000000000617c0 T _ZN6ServerD2Ev
00000000000263c9 W _ZN7Console10get_prefixB5cxx11ENS_7LogTypeE
00000000000268a3 W _ZN7Console21get_current_timestampB5cxx11Ev
0000000000025ee0 W _ZN7Console3logENS_7LogTypeENSt7__cxx1112basic_stringIcSt11char_traitsIcESaIcEEE
000000000002f09f W _ZN7Console4infoENSt7__cxx1112basic_stringIcSt11char_traitsIcESaIcEEE
0000000000025d93 W _ZN7Console5errorENSt7__cxx1112basic_stringIcSt11char_traitsIcESaIcEEE
000000000004513e T _ZN7Request14getQueryStringB5cxx11Ev
00000000000477a4 T _ZN7Request16parseRequestBodyERKNSt7__cxx1112basic_stringIcSt11char_traitsIcESaIcEEE
0000000000045e42 T _ZN7Request19generateQueryStringENSt7__cxx1112basic_stringIcSt11char_traitsIcESaIcEEE
0000000000046258 T _ZN7Request19parseRequestHeadersERKSt6vectorINSt7__cxx1112basic_stringIcSt11char_traitsIcESaIcEEESaIS6_EE
00000000000454c6 T _ZN7Request21parseRequestFirstLineERKNSt7__cxx1112basic_stringIcSt11char_traitsIcESaIcEEE
000000000004814e T _ZN7Request23parseRequestChunkedBodyERKNSt7__cxx1112basic_stringIcSt11char_traitsIcESaIcEEE
000000000004488e T _ZN7Request4loadENSt7__cxx1112basic_stringIcSt11char_traitsIcESaIcEEE
0000000000046be8 T _ZN7Request9parseLangEv
00000000000b39fc W _ZN7RequestC1ERKS_
0000000000044736 T _ZN7RequestC1Ev
00000000000b39fc W _ZN7RequestC2ERKS_
0000000000044736 T _ZN7RequestC2Ev
00000000000b38e8 W _ZN7RequestD1Ev
00000000000b38e8 W _ZN7RequestD2Ev
000000000003fa40 T _ZN7Webserv11createRouteEN9__gnu_cxx17__normal_iteratorIPNSt7__cxx1112basic_stringIcSt11char_traitsIcESaIcEEESt6vectorIS7_SaIS7_EEEESC_RK19ServerConfiguration
000000000003d6b8 T _ZN7Webserv12createServerEN9__gnu_cxx17__normal_iteratorIPNSt7__cxx1112basic_stringIcSt11char_traitsIcESaIcEEESt6vectorIS7_SaIS7_EEEESC_
000000000003cff6 T _ZN7Webserv13createServersERSt6vectorINSt7__cxx1112basic_stringIcSt11char_traitsIcESaIcEEESaIS6_EE
0000000000040a0c T _ZN7Webserv15handleRouteLineERKNSt7__cxx1112basic_stringIcSt11char_traitsIcESaIcEEER5Route
000000000004185e T _ZN7Webserv18parseConfigurationENSt7__cxx1112basic_stringIcSt11char_traitsIcESaIcEEE
000000000004019a T _ZN7Webserv18parseRouteConfLineERNSt7__cxx1112basic_stringIcSt11char_traitsIcESaIcEEER5Route
000000000003e6a0 T _ZN7Webserv19parseServerConfLineERNSt7__cxx1112basic_stringIcSt11char_traitsIcESaIcEEER19ServerConfiguration
000000000003ef12 T _ZN7Webserv20handleServerConfLineERKNSt7__cxx1112basic_stringIcSt11char_traitsIcESaIcEEER19ServerConfiguration
00000000000415c2 T _ZN7Webserv3runEv
0000000000041802 T _ZN7Webserv4stopEv
0000000000041586 T _ZN7WebservC1ERS_
000000000004152a T _ZN7WebservC1Ev
0000000000041586 T _ZN7WebservC2ERS_
000000000004152a T _ZN7WebservC2Ev
00000000000415a6 T _ZN7WebservD1Ev
00000000000415a6 T _ZN7WebservD2Ev
000000000005277a T _ZN8Response5buildERKSt3mapIiNSt7__cxx1112basic_stringIcSt11char_traitsIcESaIcEEESt4lessIiESaISt4pairIKiS6_EEE
0000000000052708 T _ZN8Response7setBodyERKNSt7__cxx1112basic_stringIcSt11char_traitsIcESaIcEEE
00000000000526c8 T _ZN8Response9setHeaderERKNSt7__cxx1112basic_stringIcSt11char_traitsIcESaIcEEES7_
0000000000052678 T _ZN8Response9setStatusEi
0000000000051c4a T _ZN8ResponseC1Ev
0000000000051c4a T _ZN8ResponseC2Ev
0000000000052604 T _ZN8ResponseD1Ev
0000000000052604 T _ZN8ResponseD2Ev
000000000004cf0e T _ZN9AutoIndex11createIndexEv
000000000004debc T _ZN9AutoIndex12addIndexLineEi
000000000004cf98 T _ZN9AutoIndex12getFilenamesEv
000000000004d900 T _ZN9AutoIndex13createEntriesEv
000000000004e7fe T _ZN9AutoIndex16compareFilenamesERKNSt7__cxx1112basic_stringIcSt11char_traitsIcESaIcEEES7_
000000000004d266 T _ZN9AutoIndex16processFilenamesEv
000000000004ca74 T _ZN9AutoIndexC1ERKNSt7__cxx1112basic_stringIcSt11char_traitsIcESaIcEEES7_
000000000004ca74 T _ZN9AutoIndexC2ERKNSt7__cxx1112basic_stringIcSt11char_traitsIcESaIcEEES7_
000000000004ce50 T _ZN9AutoIndexD1Ev
000000000004ce50 T _ZN9AutoIndexD2Ev
00000000000bc3ae W _ZN9__gnu_cxx13new_allocatorI19ServerConfigurationE10deallocateEPS1_m
00000000000bd71a W _ZN9__gnu_cxx13new_allocatorI19ServerConfigurationE7destroyEPS1_
00000000000be95c W _ZN9__gnu_cxx13new_allocatorI19ServerConfigurationE8allocateEmPKv
00000000000ba706 W _ZN9__gnu_cxx13new_allocatorI19ServerConfigurationE9constructEPS1_RKS1_
00000000000be648 W _ZN9__gnu_cxx13new_allocatorI19ServerConfigurationEC1Ev
00000000000be648 W _ZN9__gnu_cxx13new_allocatorI19ServerConfigurationEC2Ev
00000000000bbc8c W _ZN9__gnu_cxx13new_allocatorI19ServerConfigurationED1Ev
00000000000bbc8c W _ZN9__gnu_cxx13new_allocatorI19ServerConfigurationED2Ev
000000000005e5ce W _ZN9__gnu_cxx13new_allocatorI5RouteE10deallocateEPS1_m
000000000005ec16 W _ZN9__gnu_cxx13new_allocatorI5RouteE7destroyEPS1_
000000000005eebc W _ZN9__gnu_cxx13new_allocatorI5RouteE8allocateEmPKv
000000000005dcea W _ZN9__gnu_cxx13new_allocatorI5RouteE9constructEPS1_RKS1_
00000000000c0f62 W _ZN9__gnu_cxx13new_allocatorI5RouteEC1ERKS2_
000000000005ed36 W _ZN9__gnu_cxx13new_allocatorI5RouteEC1Ev
00000000000c0f62 W _ZN9__gnu_cxx13new_allocatorI5RouteEC2ERKS2_
000000000005ed36 W _ZN9__gnu_cxx13new_allocatorI5RouteEC2Ev
000000000005e24e W _ZN9__gnu_cxx13new_allocatorI5RouteED1Ev
000000000005e24e W _ZN9__gnu_cxx13new_allocatorI5RouteED2Ev
0000000000038efe W _ZN9__gnu_cxx13new_allocatorI6ServerE10deallocateEPS1_m
00000000000375ac W _ZN9__gnu_cxx13new_allocatorI6ServerE7destroyEPS1_
00000000000390f2 W _ZN9__gnu_cxx13new_allocatorI6ServerE8allocateEmPKv
00000000000344dc W _ZN9__gnu_cxx13new_allocatorI6ServerE9constructEPS1_RKS1_
0000000000038ef2 W _ZN9__gnu_cxx13new_allocatorI6ServerEC1Ev
0000000000038ef2 W _ZN9__gnu_cxx13new_allocatorI6ServerEC2Ev
0000000000037092 W _ZN9__gnu_cxx13new_allocatorI6ServerED1Ev
0000000000037092 W _ZN9__gnu_cxx13new_allocatorI6ServerED2Ev
0000000000044130 W _ZN9__gnu_cxx13new_allocatorINSt7__cxx1112basic_stringIcSt11char_traitsIcESaIcEEEE10deallocateEPS6_m
0000000000044400 W _ZN9__gnu_cxx13new_allocatorINSt7__cxx1112basic_stringIcSt11char_traitsIcESaIcEEEE7destroyEPS6_
0000000000044454 W _ZN9__gnu_cxx13new_allocatorINSt7__cxx1112basic_stringIcSt11char_traitsIcESaIcEEEE8allocateEmPKv
0000000000043d3a W _ZN9__gnu_cxx13new_allocatorINSt7__cxx1112basic_stringIcSt11char_traitsIcESaIcEEEE9constructEPS6_RKS6_
0000000000057124 W _ZN9__gnu_cxx13new_allocatorINSt7__cxx1112basic_stringIcSt11char_traitsIcESaIcEEEEC1ERKS7_
0000000000044420 W _ZN9__gnu_cxx13new_allocatorINSt7__cxx1112basic_stringIcSt11char_traitsIcESaIcEEEEC1Ev
0000000000057124 W _ZN9__gnu_cxx13new_allocatorINSt7__cxx1112basic_stringIcSt11char_traitsIcESaIcEEEEC2ERKS7_
0000000000044420 W _ZN9__gnu_cxx13new_allocatorINSt7__cxx1112basic_stringIcSt11char_traitsIcESaIcEEEEC2Ev
00000000000440c2 W _ZN9__gnu_cxx13new_allocatorINSt7__cxx1112basic_stringIcSt11char_traitsIcESaIcEEEED1Ev
00000000000440c2 W _ZN9__gnu_cxx13new_allocatorINSt7__cxx1112basic_stringIcSt11char_traitsIcESaIcEEEED2Ev
0000000000029c70 W _ZN9__gnu_cxx13new_allocatorISt13_Rb_tree_nodeISt4pairIKNSt7__cxx1112basic_stringIcSt11char_traitsIcESaIcEEES8_EEE10deallocateEPSB_m
000000000002ac42 W _ZN9__gnu_cxx13new_allocatorISt13_Rb_tree_nodeISt4pairIKNSt7__cxx1112basic_stringIcSt11char_traitsIcESaIcEEES8_EEE8allocateEmPKv
000000000002898c W _ZN9__gnu_cxx13new_allocatorISt13_Rb_tree_nodeISt4pairIKNSt7__cxx1112basic_stringIcSt11char_traitsIcESaIcEEES8_EEEC1ERKSC_
00000000000288d4 W _ZN9__gnu_cxx13new_allocatorISt13_Rb_tree_nodeISt4pairIKNSt7__cxx1112basic_stringIcSt11char_traitsIcESaIcEEES8_EEEC1Ev
000000000002898c W _ZN9__gnu_cxx13new_allocatorISt13_Rb_tree_nodeISt4pairIKNSt7__cxx1112basic_stringIcSt11char_traitsIcESaIcEEES8_EEEC2ERKSC_
00000000000288d4 W _ZN9__gnu_cxx13new_allocatorISt13_Rb_tree_nodeISt4pairIKNSt7__cxx1112basic_stringIcSt11char_traitsIcESaIcEEES8_EEEC2Ev
0000000000027c9a W _ZN9__gnu_cxx13new_allocatorISt13_Rb_tree_nodeISt4pairIKNSt7__cxx1112basic_stringIcSt11char_traitsIcESaIcEEES8_EEED1Ev
0000000000027c9a W _ZN9__gnu_cxx13new_allocatorISt13_Rb_tree_nodeISt4pairIKNSt7__cxx1112basic_stringIcSt11char_traitsIcESaIcEEES8_EEED2Ev
000000000004bbe0 W _ZN9__gnu_cxx13new_allocatorISt13_Rb_tree_nodeISt4pairIKfNSt7__cxx1112basic_stringIcSt11char_traitsIcESaIcEEEEEE10deallocateEPSB_m
000000000004ca0e W _ZN9__gnu_cxx13new_allocatorISt13_Rb_tree_nodeISt4pairIKfNSt7__cxx1112basic_stringIcSt11char_traitsIcESaIcEEEEEE8allocateEmPKv
00000000000bfdbe W _ZN9__gnu_cxx13new_allocatorISt13_Rb_tree_nodeISt4pairIKfNSt7__cxx1112basic_stringIcSt11char_traitsIcESaIcEEEEEEC1ERKSC_
000000000004ab5c W _ZN9__gnu_cxx13new_allocatorISt13_Rb_tree_nodeISt4pairIKfNSt7__cxx1112basic_stringIcSt11char_traitsIcESaIcEEEEEEC1Ev
00000000000bfdbe W _ZN9__gnu_cxx13new_allocatorISt13_Rb_tree_nodeISt4pairIKfNSt7__cxx1112basic_stringIcSt11char_traitsIcESaIcEEEEEEC2ERKSC_
000000000004ab5c W _ZN9__gnu_cxx13new_allocatorISt13_Rb_tree_nodeISt4pairIKfNSt7__cxx1112basic_stringIcSt11char_traitsIcESaIcEEEEEEC2Ev
000000000004a00a W _ZN9__gnu_cxx13new_allocatorISt13_Rb_tree_nodeISt4pairIKfNSt7__cxx1112basic_stringIcSt11char_traitsIcESaIcEEEEEED1Ev
000000000004a00a W _ZN9__gnu_cxx13new_allocatorISt13_Rb_tree_nodeISt4pairIKfNSt7__cxx1112basic_stringIcSt11char_traitsIcESaIcEEEEEED2Ev
00000000000c374a W _ZN9__gnu_cxx13new_allocatorISt13_Rb_tree_nodeISt4pairIKi5RouteEEE10deallocateEPS6_m
00000000000c522a W _ZN9__gnu_cxx13new_allocatorISt13_Rb_tree_nodeISt4pairIKi5RouteEEE8allocateEmPKv
00000000000c0f72 W _ZN9__gnu_cxx13new_allocatorISt13_Rb_tree_nodeISt4pairIKi5RouteEEEC1Ev
00000000000c0f72 W _ZN9__gnu_cxx13new_allocatorISt13_Rb_tree_nodeISt4pairIKi5RouteEEEC2Ev
00000000000bb616 W _ZN9__gnu_cxx13new_allocatorISt13_Rb_tree_nodeISt4pairIKi5RouteEEED1Ev
00000000000bb616 W _ZN9__gnu_cxx13new_allocatorISt13_Rb_tree_nodeISt4pairIKi5RouteEEED2Ev
000000000006033e W _ZN9__gnu_cxx13new_allocatorISt13_Rb_tree_nodeISt4pairIKiNSt7__cxx1112basic_stringIcSt11char_traitsIcESaIcEEEEEE10deallocateEPSB_m
000000000006147c W _ZN9__gnu_cxx13new_allocatorISt13_Rb_tree_nodeISt4pairIKiNSt7__cxx1112basic_stringIcSt11char_traitsIcESaIcEEEEEE8allocateEmPKv
000000000005ec7e W _ZN9__gnu_cxx13new_allocatorISt13_Rb_tree_nodeISt4pairIKiNSt7__cxx1112basic_stringIcSt11char_traitsIcESaIcEEEEEEC1Ev
000000000005ec7e W _ZN9__gnu_cxx13new_allocatorISt13_Rb_tree_nodeISt4pairIKiNSt7__cxx1112basic_stringIcSt11char_traitsIcESaIcEEEEEEC2Ev
000000000005d1a6 W _ZN9__gnu_cxx13new_allocatorISt13_Rb_tree_nodeISt4pairIKiNSt7__cxx1112basic_stringIcSt11char_traitsIcESaIcEEEEEED1Ev
000000000005d1a6 W _ZN9__gnu_cxx13new_allocatorISt13_Rb_tree_nodeISt4pairIKiNSt7__cxx1112basic_stringIcSt11char_traitsIcESaIcEEEEEED2Ev
00000000000c1f24 W _ZN9__gnu_cxx13new_allocatorISt13_Rb_tree_nodeISt4pairIKlNSt7__cxx1112basic_stringIcSt11char_traitsIcESaIcEEEEEE10deallocateEPSB_m
00000000000c5188 W _ZN9__gnu_cxx13new_allocatorISt13_Rb_tree_nodeISt4pairIKlNSt7__cxx1112basic_stringIcSt11char_traitsIcESaIcEEEEEE8allocateEmPKv
00000000000be67c W _ZN9__gnu_cxx13new_allocatorISt13_Rb_tree_nodeISt4pairIKlNSt7__cxx1112basic_stringIcSt11char_traitsIcESaIcEEEEEEC1Ev
00000000000be67c W _ZN9__gnu_cxx13new_allocatorISt13_Rb_tree_nodeISt4pairIKlNSt7__cxx1112basic_stringIcSt11char_traitsIcESaIcEEEEEEC2Ev
00000000000b8a92 W _ZN9__gnu_cxx13new_allocatorISt13_Rb_tree_nodeISt4pairIKlNSt7__cxx1112basic_stringIcSt11char_traitsIcESaIcEEEEEED1Ev
00000000000b8a92 W _ZN9__gnu_cxx13new_allocatorISt13_Rb_tree_nodeISt4pairIKlNSt7__cxx1112basic_stringIcSt11char_traitsIcESaIcEEEEEED2Ev
000000000003ada6 W _ZN9__gnu_cxx13new_allocatorISt13_Rb_tree_nodeISt4pairIKlP6ServerEEE10deallocateEPS7_m
000000000003bdca W _ZN9__gnu_cxx13new_allocatorISt13_Rb_tree_nodeISt4pairIKlP6ServerEEE8allocateEmPKv
0000000000038f4a W _ZN9__gnu_cxx13new_allocatorISt13_Rb_tree_nodeISt4pairIKlP6ServerEEEC1Ev
0000000000038f4a W _ZN9__gnu_cxx13new_allocatorISt13_Rb_tree_nodeISt4pairIKlP6ServerEEEC2Ev
000000000003420a W _ZN9__gnu_cxx13new_allocatorISt13_Rb_tree_nodeISt4pairIKlP6ServerEEED1Ev
000000000003420a W _ZN9__gnu_cxx13new_allocatorISt13_Rb_tree_nodeISt4pairIKlP6ServerEEED2Ev
000000000003ae04 W _ZN9__gnu_cxx13new_allocatorISt13_Rb_tree_nodeISt4pairIKllEEE10deallocateEPS5_m
000000000003c0da W _ZN9__gnu_cxx13new_allocatorISt13_Rb_tree_nodeISt4pairIKllEEE8allocateEmPKv
0000000000039022 W _ZN9__gnu_cxx13new_allocatorISt13_Rb_tree_nodeISt4pairIKllEEEC1Ev
0000000000039022 W _ZN9__gnu_cxx13new_allocatorISt13_Rb_tree_nodeISt4pairIKllEEEC2Ev
0000000000034420 W _ZN9__gnu_cxx13new_allocatorISt13_Rb_tree_nodeISt4pairIKllEEED1Ev
0000000000034420 W _ZN9__gnu_cxx13new_allocatorISt13_Rb_tree_nodeISt4pairIKllEEED2Ev
00000000000c1f82 W _ZN9__gnu_cxx13new_allocatorISt13_Rb_tree_nodeISt4pairIKlmEEE10deallocateEPS5_m
00000000000c51da W _ZN9__gnu_cxx13new_allocatorISt13_Rb_tree_nodeISt4pairIKlmEEE8allocateEmPKv
00000000000be734 W _ZN9__gnu_cxx13new_allocatorISt13_Rb_tree_nodeISt4pairIKlmEEEC1Ev
00000000000be734 W _ZN9__gnu_cxx13new_allocatorISt13_Rb_tree_nodeISt4pairIKlmEEEC2Ev
00000000000b8b86 W _ZN9__gnu_cxx13new_allocatorISt13_Rb_tree_nodeISt4pairIKlmEEED1Ev
00000000000b8b86 W _ZN9__gnu_cxx13new_allocatorISt13_Rb_tree_nodeISt4pairIKlmEEED2Ev
0000000000028930 W _ZN9__gnu_cxx13new_allocatorISt4pairIKNSt7__cxx1112basic_stringIcSt11char_traitsIcESaIcEEES7_EE7destroyEPS9_
000000000002abd4 W _ZN9__gnu_cxx13new_allocatorISt4pairIKNSt7__cxx1112basic_stringIcSt11char_traitsIcESaIcEEES7_EE9constructEPS9_RKS9_
000000000002a8c0 W _ZN9__gnu_cxx13new_allocatorISt4pairIKNSt7__cxx1112basic_stringIcSt11char_traitsIcESaIcEEES7_EEC1Ev
000000000002a8c0 W _ZN9__gnu_cxx13new_allocatorISt4pairIKNSt7__cxx1112basic_stringIcSt11char_traitsIcESaIcEEES7_EEC2Ev
0000000000029c64 W _ZN9__gnu_cxx13new_allocatorISt4pairIKNSt7__cxx1112basic_stringIcSt11char_traitsIcESaIcEEES7_EED1Ev
0000000000029c64 W _ZN9__gnu_cxx13new_allocatorISt4pairIKNSt7__cxx1112basic_stringIcSt11char_traitsIcESaIcEEES7_EED2Ev
000000000004abb8 W _ZN9__gnu_cxx13new_allocatorISt4pairIKfNSt7__cxx1112basic_stringIcSt11char_traitsIcESaIcEEEEE7destroyEPS9_
000000000004c9a0 W _ZN9__gnu_cxx13new_allocatorISt4pairIKfNSt7__cxx1112basic_stringIcSt11char_traitsIcESaIcEEEEE9constructEPS9_RKS9_
000000000004c654 W _ZN9__gnu_cxx13new_allocatorISt4pairIKfNSt7__cxx1112basic_stringIcSt11char_traitsIcESaIcEEEEEC1Ev
000000000004c654 W _ZN9__gnu_cxx13new_allocatorISt4pairIKfNSt7__cxx1112basic_stringIcSt11char_traitsIcESaIcEEEEEC2Ev
000000000004bbd4 W _ZN9__gnu_cxx13new_allocatorISt4pairIKfNSt7__cxx1112basic_stringIcSt11char_traitsIcESaIcEEEEED1Ev
000000000004bbd4 W _ZN9__gnu_cxx13new_allocatorISt4pairIKfNSt7__cxx1112basic_stringIcSt11char_traitsIcESaIcEEEEED2Ev
00000000000c0fce W _ZN9__gnu_cxx13new_allocatorISt4pairIKi5RouteEE7destroyEPS4_
00000000000c511a W _ZN9__gnu_cxx13new_allocatorISt4pairIKi5RouteEE9constructEPS4_RKS4_
00000000000c4962 W _ZN9__gnu_cxx13new_allocatorISt4pairIKi5RouteEEC1Ev
00000000000c4962 W _ZN9__gnu_cxx13new_allocatorISt4pairIKi5RouteEEC2Ev
00000000000c373e W _ZN9__gnu_cxx13new_allocatorISt4pairIKi5RouteEED1Ev
00000000000c373e W _ZN9__gnu_cxx13new_allocatorISt4pairIKi5RouteEED2Ev
000000000005ecda W _ZN9__gnu_cxx13new_allocatorISt4pairIKiNSt7__cxx1112basic_stringIcSt11char_traitsIcESaIcEEEEE7destroyEPS9_
00000000000613bc W _ZN9__gnu_cxx13new_allocatorISt4pairIKiNSt7__cxx1112basic_stringIcSt11char_traitsIcESaIcEEEEE9constructEPS9_RKS9_
0000000000060dc4 W _ZN9__gnu_cxx13new_allocatorISt4pairIKiNSt7__cxx1112basic_stringIcSt11char_traitsIcESaIcEEEEEC1Ev
0000000000060dc4 W _ZN9__gnu_cxx13new_allocatorISt4pairIKiNSt7__cxx1112basic_stringIcSt11char_traitsIcESaIcEEEEEC2Ev
0000000000060332 W _ZN9__gnu_cxx13new_allocatorISt4pairIKiNSt7__cxx1112basic_stringIcSt11char_traitsIcESaIcEEEEED1Ev
0000000000060332 W _ZN9__gnu_cxx13new_allocatorISt4pairIKiNSt7__cxx1112basic_stringIcSt11char_traitsIcESaIcEEEEED2Ev
00000000000be6d8 W _ZN9__gnu_cxx13new_allocatorISt4pairIKlNSt7__cxx1112basic_stringIcSt11char_traitsIcESaIcEEEEE7destroyEPS9_
00000000000c4b68 W _ZN9__gnu_cxx13new_allocatorISt4pairIKlNSt7__cxx1112basic_stringIcSt11char_traitsIcESaIcEEEEE9constructEPS9_RKS9_
00000000000c404c W _ZN9__gnu_cxx13new_allocatorISt4pairIKlNSt7__cxx1112basic_stringIcSt11char_traitsIcESaIcEEEEEC1Ev
00000000000c404c W _ZN9__gnu_cxx13new_allocatorISt4pairIKlNSt7__cxx1112basic_stringIcSt11char_traitsIcESaIcEEEEEC2Ev
00000000000c1f18 W _ZN9__gnu_cxx13new_allocatorISt4pairIKlNSt7__cxx1112basic_stringIcSt11char_traitsIcESaIcEEEEED1Ev
00000000000c1f18 W _ZN9__gnu_cxx13new_allocatorISt4pairIKlNSt7__cxx1112basic_stringIcSt11char_traitsIcESaIcEEEEED2Ev
0000000000038fa6 W _ZN9__gnu_cxx13new_allocatorISt4pairIKlP6ServerEE7destroyEPS5_
000000000003bcba W _ZN9__gnu_cxx13new_allocatorISt4pairIKlP6ServerEE9constructEPS5_RKS5_
000000000003bc02 W _ZN9__gnu_cxx13new_allocatorISt4pairIKlP6ServerEEC1Ev
000000000003bc02 W _ZN9__gnu_cxx13new_allocatorISt4pairIKlP6ServerEEC2Ev
000000000003ad9a W _ZN9__gnu_cxx13new_allocatorISt4pairIKlP6ServerEED1Ev
000000000003ad9a W _ZN9__gnu_cxx13new_allocatorISt4pairIKlP6ServerEED2Ev
000000000003907e W _ZN9__gnu_cxx13new_allocatorISt4pairIKllEE7destroyEPS3_
000000000003c054 W _ZN9__gnu_cxx13new_allocatorISt4pairIKllEE9constructEPS3_RKS3_
000000000003bc0e W _ZN9__gnu_cxx13new_allocatorISt4pairIKllEEC1Ev
000000000003bc0e W _ZN9__gnu_cxx13new_allocatorISt4pairIKllEEC2Ev
000000000003adf8 W _ZN9__gnu_cxx13new_allocatorISt4pairIKllEED1Ev
000000000003adf8 W _ZN9__gnu_cxx13new_allocatorISt4pairIKllEED2Ev
00000000000be790 W _ZN9__gnu_cxx13new_allocatorISt4pairIKlmEE7destroyEPS3_
00000000000c4fd0 W _ZN9__gnu_cxx13new_allocatorISt4pairIKlmEE9constructEPS3_RKS3_
00000000000c4058 W _ZN9__gnu_cxx13new_allocatorISt4pairIKlmEEC1Ev
00000000000c4058 W _ZN9__gnu_cxx13new_allocatorISt4pairIKlmEEC2Ev
00000000000c1f76 W _ZN9__gnu_cxx13new_allocatorISt4pairIKlmEED1Ev
00000000000c1f76 W _ZN9__gnu_cxx13new_allocatorISt4pairIKlmEED2Ev
0000000000038ffe W _ZN9__gnu_cxx13new_allocatorIiE10deallocateEPim
0000000000037e4e W _ZN9__gnu_cxx13new_allocatorIiE7destroyEPi
0000000000039e6c W _ZN9__gnu_cxx13new_allocatorIiE8allocateEmPKv
0000000000036204 W _ZN9__gnu_cxx13new_allocatorIiE9constructEPiRKi
00000000000cd352 W _ZN9__gnu_cxx13new_allocatorIiEC1ERKS1_
0000000000038ff2 W _ZN9__gnu_cxx13new_allocatorIiEC1Ev
00000000000cd352 W _ZN9__gnu_cxx13new_allocatorIiEC2ERKS1_
0000000000038ff2 W _ZN9__gnu_cxx13new_allocatorIiEC2Ev
00000000000372d2 W _ZN9__gnu_cxx13new_allocatorIiED1Ev
00000000000372d2 W _ZN9__gnu_cxx13new_allocatorIiED2Ev
00000000000b90fc W _ZN9__gnu_cxx14__alloc_traitsISaI19ServerConfigurationEE10deallocateERS2_PS1_m
00000000000baa5d W _ZN9__gnu_cxx14__alloc_traitsISaI19ServerConfigurationEE7destroyERS2_PS1_
00000000000bc352 W _ZN9__gnu_cxx14__alloc_traitsISaI19ServerConfigurationEE8allocateERS2_m
00000000000c00b1 W _ZN9__gnu_cxx14__alloc_traitsISaI19ServerConfigurationEE8max_sizeERKS2_
00000000000b753a W _ZN9__gnu_cxx14__alloc_traitsISaI19ServerConfigurationEE9constructIS1_EEvRS2_PS1_RKT_
000000000005d796 W _ZN9__gnu_cxx14__alloc_traitsISaI5RouteEE10deallocateERS2_PS1_m
00000000000b80a5 W _ZN9__gnu_cxx14__alloc_traitsISaI5RouteEE17_S_select_on_copyERKS2_
000000000005e03e W _ZN9__gnu_cxx14__alloc_traitsISaI5RouteEE7destroyERS2_PS1_
000000000005e572 W _ZN9__gnu_cxx14__alloc_traitsISaI5RouteEE8allocateERS2_m
00000000000602db W _ZN9__gnu_cxx14__alloc_traitsISaI5RouteEE8max_sizeERKS2_
000000000005caca W _ZN9__gnu_cxx14__alloc_traitsISaI5RouteEE9constructIS1_EEvRS2_PS1_RKT_
000000000003709d W _ZN9__gnu_cxx14__alloc_traitsISaI6ServerEE10deallocateERS2_PS1_m
0000000000034867 W _ZN9__gnu_cxx14__alloc_traitsISaI6ServerEE7destroyERS2_PS1_
0000000000037551 W _ZN9__gnu_cxx14__alloc_traitsISaI6ServerEE8allocateERS2_m
00000000000390ca W _ZN9__gnu_cxx14__alloc_traitsISaI6ServerEE8max_sizeERKS2_
000000000003183b W _ZN9__gnu_cxx14__alloc_traitsISaI6ServerEE9constructIS1_EEvRS2_PS1_RKT_
0000000000043a3b W _ZN9__gnu_cxx14__alloc_traitsISaINSt7__cxx1112basic_stringIcSt11char_traitsIcESaIcEEEEE10deallocateERS7_PS6_m
0000000000056f16 W _ZN9__gnu_cxx14__alloc_traitsISaINSt7__cxx1112basic_stringIcSt11char_traitsIcESaIcEEEEE17_S_select_on_copyERKS7_
0000000000044080 W _ZN9__gnu_cxx14__alloc_traitsISaINSt7__cxx1112basic_stringIcSt11char_traitsIcESaIcEEEEE7destroyERS7_PS6_
0000000000044105 W _ZN9__gnu_cxx14__alloc_traitsISaINSt7__cxx1112basic_stringIcSt11char_traitsIcESaIcEEEEE8allocateERS7_m
0000000000044708 W _ZN9__gnu_cxx14__alloc_traitsISaINSt7__cxx1112basic_stringIcSt11char_traitsIcESaIcEEEEE8max_sizeERKS7_
0000000000043303 W _ZN9__gnu_cxx14__alloc_traitsISaINSt7__cxx1112basic_stringIcSt11char_traitsIcESaIcEEEEE9constructIS6_EEvRS7_PS6_RKT_
000000000002894f W _ZN9__gnu_cxx14__alloc_traitsISaISt13_Rb_tree_nodeISt4pairIKNSt7__cxx1112basic_stringIcSt11char_traitsIcESaIcEEES8_EEEE10deallocateERSC_PSB_m
0000000000028324 W _ZN9__gnu_cxx14__alloc_traitsISaISt13_Rb_tree_nodeISt4pairIKNSt7__cxx1112basic_stringIcSt11char_traitsIcESaIcEEES8_EEEE17_S_select_on_copyERKSC_
000000000002ab45 W _ZN9__gnu_cxx14__alloc_traitsISaISt13_Rb_tree_nodeISt4pairIKNSt7__cxx1112basic_stringIcSt11char_traitsIcESaIcEEES8_EEEE8allocateERSC_m
000000000004abd7 W _ZN9__gnu_cxx14__alloc_traitsISaISt13_Rb_tree_nodeISt4pairIKfNSt7__cxx1112basic_stringIcSt11char_traitsIcESaIcEEEEEEE10deallocateERSC_PSB_m
00000000000bd580 W _ZN9__gnu_cxx14__alloc_traitsISaISt13_Rb_tree_nodeISt4pairIKfNSt7__cxx1112basic_stringIcSt11char_traitsIcESaIcEEEEEEE17_S_select_on_copyERKSC_
000000000004c8d9 W _ZN9__gnu_cxx14__alloc_traitsISaISt13_Rb_tree_nodeISt4pairIKfNSt7__cxx1112basic_stringIcSt11char_traitsIcESaIcEEEEEEE8allocateERSC_m
00000000000c0fed W _ZN9__gnu_cxx14__alloc_traitsISaISt13_Rb_tree_nodeISt4pairIKi5RouteEEEE10deallocateERS7_PS6_m
00000000000c5055 W _ZN9__gnu_cxx14__alloc_traitsISaISt13_Rb_tree_nodeISt4pairIKi5RouteEEEE8allocateERS7_m
000000000005ecf9 W _ZN9__gnu_cxx14__alloc_traitsISaISt13_Rb_tree_nodeISt4pairIKiNSt7__cxx1112basic_stringIcSt11char_traitsIcESaIcEEEEEEE10deallocateERSC_PSB_m
0000000000061451 W _ZN9__gnu_cxx14__alloc_traitsISaISt13_Rb_tree_nodeISt4pairIKiNSt7__cxx1112basic_stringIcSt11char_traitsIcESaIcEEEEEEE8allocateERSC_m
00000000000be6f7 W _ZN9__gnu_cxx14__alloc_traitsISaISt13_Rb_tree_nodeISt4pairIKlNSt7__cxx1112basic_stringIcSt11char_traitsIcESaIcEEEEEEE10deallocateERSC_PSB_m
00000000000c4f7b W _ZN9__gnu_cxx14__alloc_traitsISaISt13_Rb_tree_nodeISt4pairIKlNSt7__cxx1112basic_stringIcSt11char_traitsIcESaIcEEEEEEE8allocateERSC_m
0000000000038fb5 W _ZN9__gnu_cxx14__alloc_traitsISaISt13_Rb_tree_nodeISt4pairIKlP6ServerEEEE10deallocateERS8_PS7_m
000000000003bc90 W _ZN9__gnu_cxx14__alloc_traitsISaISt13_Rb_tree_nodeISt4pairIKlP6ServerEEEE8allocateERS8_m
000000000003908d W _ZN9__gnu_cxx14__alloc_traitsISaISt13_Rb_tree_nodeISt4pairIKllEEEE10deallocateERS6_PS5_m
000000000003c02a W _ZN9__gnu_cxx14__alloc_traitsISaISt13_Rb_tree_nodeISt4pairIKllEEEE8allocateERS6_m
00000000000be79f W _ZN9__gnu_cxx14__alloc_traitsISaISt13_Rb_tree_nodeISt4pairIKlmEEEE10deallocateERS6_PS5_m
00000000000c4fa5 W _ZN9__gnu_cxx14__alloc_traitsISaISt13_Rb_tree_nodeISt4pairIKlmEEEE8allocateERS6_m
00000000000372dd W _ZN9__gnu_cxx14__alloc_traitsISaIiEE10deallocateERS1_Pim
0000000000035728 W _ZN9__gnu_cxx14__alloc_traitsISaIiEE7destroyERS1_Pi
00000000000385a4 W _ZN9__gnu_cxx14__alloc_traitsISaIiEE8allocateERS1_m
0000000000039e44 W _ZN9__gnu_cxx14__alloc_traitsISaIiEE8max_sizeERKS1_
000000000003324b W _ZN9__gnu_cxx14__alloc_traitsISaIiEE9constructIiEEvRS1_PiRKT_
000000000003242a W _ZN9__gnu_cxx17__normal_iteratorIP19ServerConfigurationSt6vectorIS1_SaIS1_EEEC1ERKS2_
000000000003242a W _ZN9__gnu_cxx17__normal_iteratorIP19ServerConfigurationSt6vectorIS1_SaIS1_EEEC2ERKS2_
000000000002ff98 W _ZN9__gnu_cxx17__normal_iteratorIP19ServerConfigurationSt6vectorIS1_SaIS1_EEEppEi
00000000000beca4 W _ZN9__gnu_cxx17__normal_iteratorIP19ServerConfigurationSt6vectorIS1_SaIS1_EEEppEv
000000000005d7c4 W _ZN9__gnu_cxx17__normal_iteratorIP5RouteSt6vectorIS1_SaIS1_EEEC1ERKS2_
000000000005d7c4 W _ZN9__gnu_cxx17__normal_iteratorIP5RouteSt6vectorIS1_SaIS1_EEEC2ERKS2_
00000000000b5a70 W _ZN9__gnu_cxx17__normal_iteratorIP5RouteSt6vectorIS1_SaIS1_EEEppEi
000000000005f30c W _ZN9__gnu_cxx17__normal_iteratorIP5RouteSt6vectorIS1_SaIS1_EEEppEv
0000000000031e22 W _ZN9__gnu_cxx17__normal_iteratorIP6ServerSt6vectorIS1_SaIS1_EEEC1ERKS2_
0000000000031e22 W _ZN9__gnu_cxx17__normal_iteratorIP6ServerSt6vectorIS1_SaIS1_EEEC2ERKS2_
000000000002f8f8 W _ZN9__gnu_cxx17__normal_iteratorIP6ServerSt6vectorIS1_SaIS1_EEEppEi
00000000000b9026 W _ZN9__gnu_cxx17__normal_iteratorIPK19ServerConfigurationSt6vectorIS1_SaIS1_EEEC1ERKS3_
00000000000b9026 W _ZN9__gnu_cxx17__normal_iteratorIPK19ServerConfigurationSt6vectorIS1_SaIS1_EEEC2ERKS3_
00000000000c2140 W _ZN9__gnu_cxx17__normal_iteratorIPK19ServerConfigurationSt6vectorIS1_SaIS1_EEEppEv
000000000005d0fc W _ZN9__gnu_cxx17__normal_iteratorIPK5RouteSt6vectorIS1_SaIS1_EEEC1ERKS3_
000000000005d0fc W _ZN9__gnu_cxx17__normal_iteratorIPK5RouteSt6vectorIS1_SaIS1_EEEC2ERKS3_
000000000005ba78 W _ZN9__gnu_cxx17__normal_iteratorIPK5RouteSt6vectorIS1_SaIS1_EEEppEi
0000000000060462 W _ZN9__gnu_cxx17__normal_iteratorIPK5RouteSt6vectorIS1_SaIS1_EEEppEv
00000000000439a4 W _ZN9__gnu_cxx17__normal_iteratorIPKNSt7__cxx1112basic_stringIcSt11char_traitsIcESaIcEEESt6vectorIS6_SaIS6_EEEC1ERKS8_
00000000000439a4 W _ZN9__gnu_cxx17__normal_iteratorIPKNSt7__cxx1112basic_stringIcSt11char_traitsIcESaIcEEESt6vectorIS6_SaIS6_EEEC2ERKS8_
0000000000056a9a W _ZN9__gnu_cxx17__normal_iteratorIPKNSt7__cxx1112basic_stringIcSt11char_traitsIcESaIcEEESt6vectorIS6_SaIS6_EEEppEi
000000000004468c W _ZN9__gnu_cxx17__normal_iteratorIPKNSt7__cxx1112basic_stringIcSt11char_traitsIcESaIcEEESt6vectorIS6_SaIS6_EEEppEv
0000000000042ba4 W _ZN9__gnu_cxx17__normal_iteratorIPNSt7__cxx1112basic_stringIcSt11char_traitsIcESaIcEEESt6vectorIS6_SaIS6_EEEC1ERKS7_
0000000000042ba4 W _ZN9__gnu_cxx17__normal_iteratorIPNSt7__cxx1112basic_stringIcSt11char_traitsIcESaIcEEESt6vectorIS6_SaIS6_EEEC2ERKS7_
0000000000042344 W _ZN9__gnu_cxx17__normal_iteratorIPNSt7__cxx1112basic_stringIcSt11char_traitsIcESaIcEEESt6vectorIS6_SaIS6_EEEmmEi
0000000000050e28 W _ZN9__gnu_cxx17__normal_iteratorIPNSt7__cxx1112basic_stringIcSt11char_traitsIcESaIcEEESt6vectorIS6_SaIS6_EEEmmEv
0000000000042156 W _ZN9__gnu_cxx17__normal_iteratorIPNSt7__cxx1112basic_stringIcSt11char_traitsIcESaIcEEESt6vectorIS6_SaIS6_EEEppEi
0000000000044506 W _ZN9__gnu_cxx17__normal_iteratorIPNSt7__cxx1112basic_stringIcSt11char_traitsIcESaIcEEESt6vectorIS6_SaIS6_EEEppEv
0000000000049296 W _ZN9__gnu_cxx17__normal_iteratorIPcNSt7__cxx1112basic_stringIcSt11char_traitsIcESaIcEEEEC1ERKS1_
0000000000049296 W _ZN9__gnu_cxx17__normal_iteratorIPcNSt7__cxx1112basic_stringIcSt11char_traitsIcESaIcEEEEC2ERKS1_
00000000000cc458 W _ZN9__gnu_cxx17__normal_iteratorIPcNSt7__cxx1112basic_stringIcSt11char_traitsIcESaIcEEEEppEi
00000000000cd050 W _ZN9__gnu_cxx17__normal_iteratorIPcNSt7__cxx1112basic_stringIcSt11char_traitsIcESaIcEEEEppEv
000000000003249c W _ZN9__gnu_cxx17__normal_iteratorIPiSt6vectorIiSaIiEEEC1ERKS1_
000000000003249c W _ZN9__gnu_cxx17__normal_iteratorIPiSt6vectorIiSaIiEEEC2ERKS1_
000000000003042e W _ZN9__gnu_cxx17__normal_iteratorIPiSt6vectorIiSaIiEEEppEi
0000000000051780 W _ZN9__gnu_cxx5__ops14_Iter_comp_valIPFbRKNSt7__cxx1112basic_stringIcSt11char_traitsIcESaIcEEES9_EEC1ERKNS0_15_Iter_comp_iterISB_EE
0000000000051780 W _ZN9__gnu_cxx5__ops14_Iter_comp_valIPFbRKNSt7__cxx1112basic_stringIcSt11char_traitsIcESaIcEEES9_EEC2ERKNS0_15_Iter_comp_iterISB_EE
0000000000051bea W _ZN9__gnu_cxx5__ops14_Iter_comp_valIPFbRKNSt7__cxx1112basic_stringIcSt11char_traitsIcESaIcEEES9_EEclINS_17__normal_iteratorIPS7_St6vectorIS7_SaIS7_EEEES7_EEbT_RT0_
0000000000051068 W _ZN9__gnu_cxx5__ops14_Val_comp_iterIPFbRKNSt7__cxx1112basic_stringIcSt11char_traitsIcESaIcEEES9_EEC1ERKNS0_15_Iter_comp_iterISB_EE
0000000000051068 W _ZN9__gnu_cxx5__ops14_Val_comp_iterIPFbRKNSt7__cxx1112basic_stringIcSt11char_traitsIcESaIcEEES9_EEC2ERKNS0_15_Iter_comp_iterISB_EE
00000000000510cc W _ZN9__gnu_cxx5__ops14_Val_comp_iterIPFbRKNSt7__cxx1112basic_stringIcSt11char_traitsIcESaIcEEES9_EEclIS7_NS_17__normal_iteratorIPS7_St6vectorIS7_SaIS7_EEEEEEbRT_T0_
000000000004f0f2 W _ZN9__gnu_cxx5__ops15_Iter_comp_iterIPFbRKNSt7__cxx1112basic_stringIcSt11char_traitsIcESaIcEEES9_EEC1ESB_
000000000004f0f2 W _ZN9__gnu_cxx5__ops15_Iter_comp_iterIPFbRKNSt7__cxx1112basic_stringIcSt11char_traitsIcESaIcEEES9_EEC2ESB_
00000000000502e0 W _ZN9__gnu_cxx5__ops15_Iter_comp_iterIPFbRKNSt7__cxx1112basic_stringIcSt11char_traitsIcESaIcEEES9_EEclINS_17__normal_iteratorIPS7_St6vectorIS7_SaIS7_EEEESJ_EEbT_T0_
0000000000050397 W _ZN9__gnu_cxx5__ops15__val_comp_iterIPFbRKNSt7__cxx1112basic_stringIcSt11char_traitsIcESaIcEEES9_EEENS0_14_Val_comp_iterIT_EENS0_15_Iter_comp_iterISD_EE
00000000000ccefa W _ZN9__gnu_cxx5__ops16_Iter_equals_valIKcEC1ERS2_
00000000000ccefa W _ZN9__gnu_cxx5__ops16_Iter_equals_valIKcEC2ERS2_
00000000000cd096 W _ZN9__gnu_cxx5__ops16_Iter_equals_valIKcEclINS_17__normal_iteratorIPcNSt7__cxx1112basic_stringIcSt11char_traitsIcESaIcEEEEEEEbT_
000000000004ed5c W _ZN9__gnu_cxx5__ops16__iter_comp_iterIPFbRKNSt7__cxx1112basic_stringIcSt11char_traitsIcESaIcEEES9_EEENS0_15_Iter_comp_iterIT_EESD_
00000000000cc990 W _ZN9__gnu_cxx5__ops17__iter_equals_valIKcEENS0_16_Iter_equals_valIT_EERS4_
00000000000b6527 W _ZN9__gnu_cxxeqIPK19ServerConfigurationSt6vectorIS1_SaIS1_EEEEbRKNS_17__normal_iteratorIT_T0_EESC_
000000000005d080 W _ZN9__gnu_cxxeqIPK5RouteSt6vectorIS1_SaIS1_EEEEbRKNS_17__normal_iteratorIT_T0_EESC_
00000000000b7b1f W _ZN9__gnu_cxxeqIPKNSt7__cxx1112basic_stringIcSt11char_traitsIcESaIcEEESt6vectorIS6_SaIS6_EEEEbRKNS_17__normal_iteratorIT_T0_EESH_
0000000000050263 W _ZN9__gnu_cxxeqIPNSt7__cxx1112basic_stringIcSt11char_traitsIcESaIcEEESt6vectorIS6_SaIS6_EEEEbRKNS_17__normal_iteratorIT_T0_EESG_
00000000000ccd3c W _ZN9__gnu_cxxeqIPcNSt7__cxx1112basic_stringIcSt11char_traitsIcESaIcEEEEEbRKNS_17__normal_iteratorIT_T0_EESD_
0000000000050b1b W _ZN9__gnu_cxxltIPNSt7__cxx1112basic_stringIcSt11char_traitsIcESaIcEEESt6vectorIS6_SaIS6_EEEEbRKNS_17__normal_iteratorIT_T0_EESG_
00000000000ba997 W _ZN9__gnu_cxxmiIP19ServerConfigurationSt6vectorIS1_SaIS1_EEEENS_17__normal_iteratorIT_T0_E15difference_typeERKS9_SC_
000000000005df7b W _ZN9__gnu_cxxmiIP5RouteSt6vectorIS1_SaIS1_EEEENS_17__normal_iteratorIT_T0_E15difference_typeERKS9_SC_
000000000003476d W _ZN9__gnu_cxxmiIP6ServerSt6vectorIS1_SaIS1_EEEENS_17__normal_iteratorIT_T0_E15difference_typeERKS9_SC_
0000000000043fcb W _ZN9__gnu_cxxmiIPNSt7__cxx1112basic_stringIcSt11char_traitsIcESaIcEEESt6vectorIS6_SaIS6_EEEENS_17__normal_iteratorIT_T0_E15difference_typeERKSE_SH_
00000000000cc82d W _ZN9__gnu_cxxmiIPcNSt7__cxx1112basic_stringIcSt11char_traitsIcESaIcEEEEENS_17__normal_iteratorIT_T0_E15difference_typeERKSB_SE_
00000000000364d1 W _ZN9__gnu_cxxmiIPiSt6vectorIiSaIiEEEENS_17__normal_iteratorIT_T0_E15difference_typeERKS8_SB_
000000000002ff1c W _ZN9__gnu_cxxneIP19ServerConfigurationSt6vectorIS1_SaIS1_EEEEbRKNS_17__normal_iteratorIT_T0_EESB_
000000000005f290 W _ZN9__gnu_cxxneIP5RouteSt6vectorIS1_SaIS1_EEEEbRKNS_17__normal_iteratorIT_T0_EESB_
000000000002f87c W _ZN9__gnu_cxxneIP6ServerSt6vectorIS1_SaIS1_EEEEbRKNS_17__normal_iteratorIT_T0_EESB_
00000000000c20c4 W _ZN9__gnu_cxxneIPK19ServerConfigurationSt6vectorIS1_SaIS1_EEEEbRKNS_17__normal_iteratorIT_T0_EESC_
000000000005b9fb W _ZN9__gnu_cxxneIPK5RouteSt6vectorIS1_SaIS1_EEEEbRKNS_17__normal_iteratorIT_T0_EESC_
000000000004460f W _ZN9__gnu_cxxneIPKNSt7__cxx1112basic_stringIcSt11char_traitsIcESaIcEEESt6vectorIS6_SaIS6_EEEEbRKNS_17__normal_iteratorIT_T0_EESH_
000000000004206a W _ZN9__gnu_cxxneIPNSt7__cxx1112basic_stringIcSt11char_traitsIcESaIcEEESt6vectorIS6_SaIS6_EEEEbRKNS_17__normal_iteratorIT_T0_EESG_
00000000000cc3db W _ZN9__gnu_cxxneIPcNSt7__cxx1112basic_stringIcSt11char_traitsIcESaIcEEEEEbRKNS_17__normal_iteratorIT_T0_EESD_
00000000000303b2 W _ZN9__gnu_cxxneIPiSt6vectorIiSaIiEEEEbRKNS_17__normal_iteratorIT_T0_EESA_
0000000000059fb0 T _ZNK19ServerConfiguration12getErrorPageB5cxx11Ei
0000000000059ac4 T _ZNK19ServerConfiguration12hasRootRouteEv
0000000000059a58 T _ZNK19ServerConfiguration13getServerRootB5cxx11Ev
0000000000059d10 T _ZNK19ServerConfiguration19getErrorExplanationB5cxx11Ei
00000000000599f8 T _ZNK19ServerConfiguration7getHostB5cxx11Ev
00000000000599d4 T _ZNK19ServerConfiguration7getNameB5cxx11Ev
0000000000059a0a T _ZNK19ServerConfiguration7getPortEv
00000000000599e6 T _ZNK19ServerConfiguration9getErrorsB5cxx11Ev
0000000000059a6c T _ZNK19ServerConfiguration9getRoutesEv
0000000000059a80 T _ZNK19ServerConfiguration9isDefaultEv
0000000000055512 T _ZNK5Route11getLocalURLB5cxx11Ev
0000000000055538 T _ZNK5Route11getUserFileB5cxx11Ev
0000000000055456 T _ZNK5Route11requireAuthEv
0000000000055524 T _ZNK5Route12getCGIBinaryB5cxx11Ev
000000000005554c T _ZNK5Route12getRouteLangB5cxx11Ev
0000000000055acc T _ZNK5Route14getMaxBodySizeEv
0000000000055444 T _ZNK5Route16getCGIExtensionsB5cxx11Ev
0000000000055560 T _ZNK5Route16getFormattedLangB5cxx11Ev
0000000000055432 T _ZNK5Route18getAcceptedMethodsB5cxx11Ev
00000000000554ee T _ZNK5Route8getIndexB5cxx11Ev
0000000000055500 T _ZNK5Route8getRouteB5cxx11Ev
00000000000554a0 T _ZNK5Route9autoIndexEv
0000000000065bc8 T _ZNK6Server5getFDEv
00000000000450de T _ZNK7Request10getHeadersB5cxx11Ev
000000000004516e T _ZNK7Request11getValidityEv
00000000000451bc T _ZNK7Request13hasAuthHeaderEv
00000000000450b0 T _ZNK7Request18getProtocolVersionB5cxx11Ev
0000000000045082 T _ZNK7Request6getURLB5cxx11Ev
000000000004510e T _ZNK7Request7getBodyB5cxx11Ev
0000000000045058 T _ZNK7Request9getMethodB5cxx11Ev
000000000003c62c T _ZNK7Webserv16isServBlockStartERKNSt7__cxx1112basic_stringIcSt11char_traitsIcESaIcEEE
000000000003c9fe T _ZNK7Webserv17isRouteBlockStartERKNSt7__cxx1112basic_stringIcSt11char_traitsIcESaIcEEE
000000000003ce30 T _ZNK7Webserv20isValidServDirectiveERKNSt7__cxx1112basic_stringIcSt11char_traitsIcESaIcEEE
000000000003ced2 T _ZNK7Webserv21isValidRouteDirectiveERKNSt7__cxx1112basic_stringIcSt11char_traitsIcESaIcEEE
0000000000053566 T _ZNK8Response7getBodyB5cxx11Ev
0000000000052732 T _ZNK8Response9getStatusEv
000000000004cf86 T _ZNK9AutoIndex8getIndexB5cxx11Ev
00000000000c20b0 W _ZNK9__gnu_cxx13new_allocatorI19ServerConfigurationE8max_sizeEv
000000000006044e W _ZNK9__gnu_cxx13new_allocatorI5RouteE8max_sizeEv
000000000003ae28 W _ZNK9__gnu_cxx13new_allocatorI6ServerE8max_sizeEv
0000000000044722 W _ZNK9__gnu_cxx13new_allocatorINSt7__cxx1112basic_stringIcSt11char_traitsIcESaIcEEEE8max_sizeEv
000000000002ac92 W _ZNK9__gnu_cxx13new_allocatorISt13_Rb_tree_nodeISt4pairIKNSt7__cxx1112basic_stringIcSt11char_traitsIcESaIcEEES8_EEE8max_sizeEv
000000000004ca60 W _ZNK9__gnu_cxx13new_allocatorISt13_Rb_tree_nodeISt4pairIKfNSt7__cxx1112basic_stringIcSt11char_traitsIcESaIcEEEEEE8max_sizeEv
00000000000c52aa W _ZNK9__gnu_cxx13new_allocatorISt13_Rb_tree_nodeISt4pairIKi5RouteEEE8max_sizeEv
00000000000614ce W _ZNK9__gnu_cxx13new_allocatorISt13_Rb_tree_nodeISt4pairIKiNSt7__cxx1112basic_stringIcSt11char_traitsIcESaIcEEEEEE8max_sizeEv
00000000000c5282 W _ZNK9__gnu_cxx13new_allocatorISt13_Rb_tree_nodeISt4pairIKlNSt7__cxx1112basic_stringIcSt11char_traitsIcESaIcEEEEEE8max_sizeEv
000000000003c008 W _ZNK9__gnu_cxx13new_allocatorISt13_Rb_tree_nodeISt4pairIKlP6ServerEEE8max_sizeEv
000000000003c12a W _ZNK9__gnu_cxx13new_allocatorISt13_Rb_tree_nodeISt4pairIKllEEE8max_sizeEv
00000000000c5296 W _ZNK9__gnu_cxx13new_allocatorISt13_Rb_tree_nodeISt4pairIKlmEEE8max_sizeEv
000000000003b2be W _ZNK9__gnu_cxx13new_allocatorIiE8max_sizeEv
000000000003248e W _ZNK9__gnu_cxx17__normal_iteratorIP19ServerConfigurationSt6vectorIS1_SaIS1_EEE4baseEv
0000000000030154 W _ZNK9__gnu_cxx17__normal_iteratorIP19ServerConfigurationSt6vectorIS1_SaIS1_EEEdeEv
000000000005dffe W _ZNK9__gnu_cxx17__normal_iteratorIP5RouteSt6vectorIS1_SaIS1_EEE4baseEv
000000000005f354 W _ZNK9__gnu_cxx17__normal_iteratorIP5RouteSt6vectorIS1_SaIS1_EEEdeEv
00000000000b546c W _ZNK9__gnu_cxx17__normal_iteratorIP5RouteSt6vectorIS1_SaIS1_EEEptEv
0000000000031e86 W _ZNK9__gnu_cxx17__normal_iteratorIP6ServerSt6vectorIS1_SaIS1_EEE4baseEv
000000000002fab4 W _ZNK9__gnu_cxx17__normal_iteratorIP6ServerSt6vectorIS1_SaIS1_EEEdeEv
00000000000b908a W _ZNK9__gnu_cxx17__normal_iteratorIPK19ServerConfigurationSt6vectorIS1_SaIS1_EEE4baseEv
00000000000c2188 W _ZNK9__gnu_cxx17__normal_iteratorIPK19ServerConfigurationSt6vectorIS1_SaIS1_EEEdeEv
000000000005d160 W _ZNK9__gnu_cxx17__normal_iteratorIPK5RouteSt6vectorIS1_SaIS1_EEE4baseEv
000000000005bc34 W _ZNK9__gnu_cxx17__normal_iteratorIPK5RouteSt6vectorIS1_SaIS1_EEEdeEv
000000000004449c W _ZNK9__gnu_cxx17__normal_iteratorIPKNSt7__cxx1112basic_stringIcSt11char_traitsIcESaIcEEESt6vectorIS6_SaIS6_EEE4baseEv
00000000000446d2 W _ZNK9__gnu_cxx17__normal_iteratorIPKNSt7__cxx1112basic_stringIcSt11char_traitsIcESaIcEEESt6vectorIS6_SaIS6_EEEdeEv
0000000000056c52 W _ZNK9__gnu_cxx17__normal_iteratorIPKNSt7__cxx1112basic_stringIcSt11char_traitsIcESaIcEEESt6vectorIS6_SaIS6_EEEmiEl
0000000000042c08 W _ZNK9__gnu_cxx17__normal_iteratorIPNSt7__cxx1112basic_stringIcSt11char_traitsIcESaIcEEESt6vectorIS6_SaIS6_EEE4baseEv
000000000004230e W _ZNK9__gnu_cxx17__normal_iteratorIPNSt7__cxx1112basic_stringIcSt11char_traitsIcESaIcEEESt6vectorIS6_SaIS6_EEEdeEv
000000000004fec2 W _ZNK9__gnu_cxx17__normal_iteratorIPNSt7__cxx1112basic_stringIcSt11char_traitsIcESaIcEEESt6vectorIS6_SaIS6_EEEmiEl
000000000004eeec W _ZNK9__gnu_cxx17__normal_iteratorIPNSt7__cxx1112basic_stringIcSt11char_traitsIcESaIcEEESt6vectorIS6_SaIS6_EEEplEl
00000000000cc8ac W _ZNK9__gnu_cxx17__normal_iteratorIPcNSt7__cxx1112basic_stringIcSt11char_traitsIcESaIcEEEE4baseEv
00000000000cc610 W _ZNK9__gnu_cxx17__normal_iteratorIPcNSt7__cxx1112basic_stringIcSt11char_traitsIcESaIcEEEEdeEv
0000000000048be0 W _ZNK9__gnu_cxx17__normal_iteratorIPcNSt7__cxx1112basic_stringIcSt11char_traitsIcESaIcEEEEplEl
0000000000032500 W _ZNK9__gnu_cxx17__normal_iteratorIPiSt6vectorIiSaIiEEE4baseEv
00000000000305e6 W _ZNK9__gnu_cxx17__normal_iteratorIPiSt6vectorIiSaIiEEEdeEv
0000000000035522 W _ZNK9__gnu_cxx17__normal_iteratorIPiSt6vectorIiSaIiEEEplEl
0000000000029954 W _ZNKSt10_Select1stISt4pairIKNSt7__cxx1112basic_stringIcSt11char_traitsIcESaIcEEES6_EEclERKS8_
000000000004b8c4 W _ZNKSt10_Select1stISt4pairIKfNSt7__cxx1112basic_stringIcSt11char_traitsIcESaIcEEEEEclERKS8_
00000000000be636 W _ZNKSt10_Select1stISt4pairIKi5RouteEEclERKS3_
0000000000054020 W _ZNKSt10_Select1stISt4pairIKiNSt7__cxx1112basic_stringIcSt11char_traitsIcESaIcEEEEEclERKS8_
00000000000bfa8a W _ZNKSt10_Select1stISt4pairIKlNSt7__cxx1112basic_stringIcSt11char_traitsIcESaIcEEEEEclERKS8_
0000000000034f0c W _ZNKSt10_Select1stISt4pairIKlP6ServerEEclERKS4_
0000000000038500 W _ZNKSt10_Select1stISt4pairIKllEEclERKS2_
00000000000bd56e W _ZNKSt10_Select1stISt4pairIKlmEEclERKS2_
00000000000c00cc W _ZNKSt12_Vector_baseI19ServerConfigurationSaIS0_EE19_M_get_Tp_allocatorEv
00000000000602f6 W _ZNKSt12_Vector_baseI5RouteSaIS0_EE19_M_get_Tp_allocatorEv
00000000000390e4 W _ZNKSt12_Vector_baseI6ServerSaIS0_EE19_M_get_Tp_allocatorEv
00000000000432c4 W _ZNKSt12_Vector_baseINSt7__cxx1112basic_stringIcSt11char_traitsIcESaIcEEESaIS5_EE19_M_get_Tp_allocatorEv
0000000000039e5e W _ZNKSt12_Vector_baseIiSaIiEE19_M_get_Tp_allocatorEv
000000000002a8cc W _ZNKSt13_Rb_tree_nodeISt4pairIKNSt7__cxx1112basic_stringIcSt11char_traitsIcESaIcEEES6_EE9_M_valptrEv
000000000004c660 W _ZNKSt13_Rb_tree_nodeISt4pairIKfNSt7__cxx1112basic_stringIcSt11char_traitsIcESaIcEEEEE9_M_valptrEv
00000000000c1ecc W _ZNKSt13_Rb_tree_nodeISt4pairIKi5RouteEE9_M_valptrEv
0000000000053920 W _ZNKSt13_Rb_tree_nodeISt4pairIKiNSt7__cxx1112basic_stringIcSt11char_traitsIcESaIcEEEEE9_M_valptrEv
00000000000c1fa6 W _ZNKSt13_Rb_tree_nodeISt4pairIKlNSt7__cxx1112basic_stringIcSt11char_traitsIcESaIcEEEEE9_M_valptrEv
000000000003aeda W _ZNKSt13_Rb_tree_nodeISt4pairIKlP6ServerEE9_M_valptrEv
0000000000039e26 W _ZNKSt13_Rb_tree_nodeISt4pairIKllEE9_M_valptrEv
00000000000bfda0 W _ZNKSt13_Rb_tree_nodeISt4pairIKlmEE9_M_valptrEv
00000000000b8828 W _ZNKSt16reverse_iteratorISt17_Rb_tree_iteratorISt4pairIKi5RouteEEEdeEv
00000000000b5c9a W _ZNKSt16reverse_iteratorISt17_Rb_tree_iteratorISt4pairIKi5RouteEEEptEv
00000000000277a2 W _ZNKSt17_Rb_tree_iteratorISt4pairIKNSt7__cxx1112basic_stringIcSt11char_traitsIcESaIcEEES6_EEdeEv
0000000000027718 W _ZNKSt17_Rb_tree_iteratorISt4pairIKNSt7__cxx1112basic_stringIcSt11char_traitsIcESaIcEEES6_EEeqERKS9_
0000000000027242 W _ZNKSt17_Rb_tree_iteratorISt4pairIKNSt7__cxx1112basic_stringIcSt11char_traitsIcESaIcEEES6_EEneERKS9_
0000000000027466 W _ZNKSt17_Rb_tree_iteratorISt4pairIKNSt7__cxx1112basic_stringIcSt11char_traitsIcESaIcEEES6_EEptEv
0000000000049d10 W _ZNKSt17_Rb_tree_iteratorISt4pairIKfNSt7__cxx1112basic_stringIcSt11char_traitsIcESaIcEEEEEdeEv
0000000000049c86 W _ZNKSt17_Rb_tree_iteratorISt4pairIKfNSt7__cxx1112basic_stringIcSt11char_traitsIcESaIcEEEEEeqERKS9_
00000000000488ae W _ZNKSt17_Rb_tree_iteratorISt4pairIKfNSt7__cxx1112basic_stringIcSt11char_traitsIcESaIcEEEEEneERKS9_
0000000000048ad2 W _ZNKSt17_Rb_tree_iteratorISt4pairIKfNSt7__cxx1112basic_stringIcSt11char_traitsIcESaIcEEEEEptEv
00000000000b8236 W _ZNKSt17_Rb_tree_iteratorISt4pairIKi5RouteEEdeEv
00000000000b5a08 W _ZNKSt17_Rb_tree_iteratorISt4pairIKi5RouteEEeqERKS4_
000000000005c632 W _ZNKSt17_Rb_tree_iteratorISt4pairIKiNSt7__cxx1112basic_stringIcSt11char_traitsIcESaIcEEEEEdeEv
000000000005c5a8 W _ZNKSt17_Rb_tree_iteratorISt4pairIKiNSt7__cxx1112basic_stringIcSt11char_traitsIcESaIcEEEEEeqERKS9_
000000000005b140 W _ZNKSt17_Rb_tree_iteratorISt4pairIKiNSt7__cxx1112basic_stringIcSt11char_traitsIcESaIcEEEEEneERKS9_
000000000005b364 W _ZNKSt17_Rb_tree_iteratorISt4pairIKiNSt7__cxx1112basic_stringIcSt11char_traitsIcESaIcEEEEEptEv
00000000000b6b38 W _ZNKSt17_Rb_tree_iteratorISt4pairIKlNSt7__cxx1112basic_stringIcSt11char_traitsIcESaIcEEEEEdeEv
00000000000b6aae W _ZNKSt17_Rb_tree_iteratorISt4pairIKlNSt7__cxx1112basic_stringIcSt11char_traitsIcESaIcEEEEEeqERKS9_
00000000000325be W _ZNKSt17_Rb_tree_iteratorISt4pairIKlP6ServerEEdeEv
0000000000032534 W _ZNKSt17_Rb_tree_iteratorISt4pairIKlP6ServerEEeqERKS5_
0000000000030a90 W _ZNKSt17_Rb_tree_iteratorISt4pairIKlP6ServerEEneERKS5_
0000000000030cb4 W _ZNKSt17_Rb_tree_iteratorISt4pairIKlP6ServerEEptEv
0000000000033d0e W _ZNKSt17_Rb_tree_iteratorISt4pairIKllEEdeEv
0000000000030ed0 W _ZNKSt17_Rb_tree_iteratorISt4pairIKllEEeqERKS3_
0000000000030e1c W _ZNKSt17_Rb_tree_iteratorISt4pairIKllEEneERKS3_
00000000000b7be4 W _ZNKSt17_Rb_tree_iteratorISt4pairIKlmEEdeEv
00000000000b4958 W _ZNKSt17_Rb_tree_iteratorISt4pairIKlmEEeqERKS3_
00000000000c6fac W _ZNKSt19istreambuf_iteratorIcSt11char_traitsIcEE5equalERKS2_
00000000000c6fe4 W _ZNKSt19istreambuf_iteratorIcSt11char_traitsIcEE6_M_getEv
00000000000c7398 W _ZNKSt19istreambuf_iteratorIcSt11char_traitsIcEE9_M_at_eofEv
00000000000c6df4 W _ZNKSt19istreambuf_iteratorIcSt11char_traitsIcEEdeEv
0000000000029e2e W _ZNKSt23_Rb_tree_const_iteratorISt4pairIKNSt7__cxx1112basic_stringIcSt11char_traitsIcESaIcEEES6_EE13_M_const_castEv
000000000004a2d8 W _ZNKSt23_Rb_tree_const_iteratorISt4pairIKNSt7__cxx1112basic_stringIcSt11char_traitsIcESaIcEEES6_EEeqERKS9_
0000000000048b50 W _ZNKSt23_Rb_tree_const_iteratorISt4pairIKNSt7__cxx1112basic_stringIcSt11char_traitsIcESaIcEEES6_EEneERKS9_
00000000000b4bbc W _ZNKSt23_Rb_tree_const_iteratorISt4pairIKNSt7__cxx1112basic_stringIcSt11char_traitsIcESaIcEEES6_EEptEv
000000000004bc1e W _ZNKSt23_Rb_tree_const_iteratorISt4pairIKfNSt7__cxx1112basic_stringIcSt11char_traitsIcESaIcEEEEE13_M_const_castEv
00000000000c376e W _ZNKSt23_Rb_tree_const_iteratorISt4pairIKi5RouteEE13_M_const_castEv
00000000000604aa W _ZNKSt23_Rb_tree_const_iteratorISt4pairIKiNSt7__cxx1112basic_stringIcSt11char_traitsIcESaIcEEEEE13_M_const_castEv
0000000000053c54 W _ZNKSt23_Rb_tree_const_iteratorISt4pairIKiNSt7__cxx1112basic_stringIcSt11char_traitsIcESaIcEEEEEeqERKS9_
000000000005bc84 W _ZNKSt23_Rb_tree_const_iteratorISt4pairIKiNSt7__cxx1112basic_stringIcSt11char_traitsIcESaIcEEEEEneERKS9_
0000000000053660 W _ZNKSt23_Rb_tree_const_iteratorISt4pairIKiNSt7__cxx1112basic_stringIcSt11char_traitsIcESaIcEEEEEptEv
00000000000c22aa W _ZNKSt23_Rb_tree_const_iteratorISt4pairIKlNSt7__cxx1112basic_stringIcSt11char_traitsIcESaIcEEEEE13_M_const_castEv
00000000000bd134 W _ZNKSt23_Rb_tree_const_iteratorISt4pairIKlNSt7__cxx1112basic_stringIcSt11char_traitsIcESaIcEEEEEeqERKS9_
00000000000bd19c W _ZNKSt23_Rb_tree_const_iteratorISt4pairIKlNSt7__cxx1112basic_stringIcSt11char_traitsIcESaIcEEEEEneERKS9_
000000000003b080 W _ZNKSt23_Rb_tree_const_iteratorISt4pairIKlP6ServerEE13_M_const_castEv
00000000000380c6 W _ZNKSt23_Rb_tree_const_iteratorISt4pairIKlP6ServerEEeqERKS5_
000000000003812e W _ZNKSt23_Rb_tree_const_iteratorISt4pairIKlP6ServerEEneERKS5_
000000000003b300 W _ZNKSt23_Rb_tree_const_iteratorISt4pairIKllEE13_M_const_castEv
00000000000389a6 W _ZNKSt23_Rb_tree_const_iteratorISt4pairIKllEEeqERKS3_
0000000000038a4c W _ZNKSt23_Rb_tree_const_iteratorISt4pairIKllEEneERKS3_
00000000000c2e0e W _ZNKSt23_Rb_tree_const_iteratorISt4pairIKlmEE13_M_const_castEv
00000000000bdd62 W _ZNKSt23_Rb_tree_const_iteratorISt4pairIKlmEEeqERKS3_
00000000000bde08 W _ZNKSt23_Rb_tree_const_iteratorISt4pairIKlmEEneERKS3_
0000000000048b36 W _ZNKSt3mapINSt7__cxx1112basic_stringIcSt11char_traitsIcESaIcEEES5_St4lessIS5_ESaISt4pairIKS5_S5_EEE3endEv
0000000000048b10 W _ZNKSt3mapINSt7__cxx1112basic_stringIcSt11char_traitsIcESaIcEEES5_St4lessIS5_ESaISt4pairIKS5_S5_EEE4findERS9_
00000000000271f4 W _ZNKSt3mapINSt7__cxx1112basic_stringIcSt11char_traitsIcESaIcEEES5_St4lessIS5_ESaISt4pairIKS5_S5_EEE4sizeEv
00000000000b49e6 W _ZNKSt3mapINSt7__cxx1112basic_stringIcSt11char_traitsIcESaIcEEES5_St4lessIS5_ESaISt4pairIKS5_S5_EEE5beginEv
0000000000027780 W _ZNKSt3mapINSt7__cxx1112basic_stringIcSt11char_traitsIcESaIcEEES5_St4lessIS5_ESaISt4pairIKS5_S5_EEE8key_compEv
0000000000049cee W _ZNKSt3mapIfNSt7__cxx1112basic_stringIcSt11char_traitsIcESaIcEEESt4lessIfESaISt4pairIKfS5_EEE8key_compEv
00000000000b8214 W _ZNKSt3mapIi5RouteSt4lessIiESaISt4pairIKiS0_EEE8key_compEv
000000000005bc6a W _ZNKSt3mapIiNSt7__cxx1112basic_stringIcSt11char_traitsIcESaIcEEESt4lessIiESaISt4pairIKiS5_EEE3endEv
000000000005363a W _ZNKSt3mapIiNSt7__cxx1112basic_stringIcSt11char_traitsIcESaIcEEESt4lessIiESaISt4pairIKiS5_EEE4findERS9_
000000000005c610 W _ZNKSt3mapIiNSt7__cxx1112basic_stringIcSt11char_traitsIcESaIcEEESt4lessIiESaISt4pairIKiS5_EEE8key_compEv
00000000000b6b16 W _ZNKSt3mapIlNSt7__cxx1112basic_stringIcSt11char_traitsIcESaIcEEESt4lessIlESaISt4pairIKlS5_EEE8key_compEv
000000000003259c W _ZNKSt3mapIlP6ServerSt4lessIlESaISt4pairIKlS1_EEE8key_compEv
0000000000033cec W _ZNKSt3mapIllSt4lessIlESaISt4pairIKllEEE8key_compEv
00000000000b7bc2 W _ZNKSt3mapIlmSt4lessIlESaISt4pairIKlmEEE8key_compEv
00000000000277e0 W _ZNKSt4lessINSt7__cxx1112basic_stringIcSt11char_traitsIcESaIcEEEEclERKS5_S8_
0000000000049d4e W _ZNKSt4lessIfEclERKfS2_
0000000000053db4 W _ZNKSt4lessIiEclERKiS2_
00000000000325fc W _ZNKSt4lessIlEclERKlS2_
00000000000ba774 W _ZNKSt6vectorI19ServerConfigurationSaIS0_EE12_M_check_lenEmPKc
00000000000b637e W _ZNKSt6vectorI19ServerConfigurationSaIS0_EE3endEv
00000000000b65a4 W _ZNKSt6vectorI19ServerConfigurationSaIS0_EE4sizeEv
00000000000b61da W _ZNKSt6vectorI19ServerConfigurationSaIS0_EE5beginEv
00000000000b3e20 W _ZNKSt6vectorI19ServerConfigurationSaIS0_EE5emptyEv
00000000000b6626 W _ZNKSt6vectorI19ServerConfigurationSaIS0_EE8capacityEv
00000000000bd6f8 W _ZNKSt6vectorI19ServerConfigurationSaIS0_EE8max_sizeEv
000000000005dd58 W _ZNKSt6vectorI5RouteSaIS0_EE12_M_check_lenEmPKc
000000000005b852 W _ZNKSt6vectorI5RouteSaIS0_EE3endEv
000000000005c0b2 W _ZNKSt6vectorI5RouteSaIS0_EE4sizeEv
000000000005b6ae W _ZNKSt6vectorI5RouteSaIS0_EE5beginEv
000000000005b51a W _ZNKSt6vectorI5RouteSaIS0_EE5emptyEv
000000000005c122 W _ZNKSt6vectorI5RouteSaIS0_EE8capacityEv
000000000005ebf4 W _ZNKSt6vectorI5RouteSaIS0_EE8max_sizeEv
000000000003454a W _ZNKSt6vectorI6ServerSaIS0_EE12_M_check_lenEmPKc
000000000002f5d2 W _ZNKSt6vectorI6ServerSaIS0_EE4sizeEv
00000000000374be W _ZNKSt6vectorI6ServerSaIS0_EE8max_sizeEv
0000000000043da8 W _ZNKSt6vectorINSt7__cxx1112basic_stringIcSt11char_traitsIcESaIcEEESaIS5_EE12_M_check_lenEmPKc
0000000000042f54 W _ZNKSt6vectorINSt7__cxx1112basic_stringIcSt11char_traitsIcESaIcEEESaIS5_EE3endEv
00000000000420e6 W _ZNKSt6vectorINSt7__cxx1112basic_stringIcSt11char_traitsIcESaIcEEESaIS5_EE4sizeEv
0000000000042db0 W _ZNKSt6vectorINSt7__cxx1112basic_stringIcSt11char_traitsIcESaIcEEESaIS5_EE5beginEv
00000000000b4ce8 W _ZNKSt6vectorINSt7__cxx1112basic_stringIcSt11char_traitsIcESaIcEEESaIS5_EE5emptyEv
0000000000042d40 W _ZNKSt6vectorINSt7__cxx1112basic_stringIcSt11char_traitsIcESaIcEEESaIS5_EE8capacityEv
00000000000443de W _ZNKSt6vectorINSt7__cxx1112basic_stringIcSt11char_traitsIcESaIcEEESaIS5_EE8max_sizeEv
0000000000048d96 W _ZNKSt6vectorINSt7__cxx1112basic_stringIcSt11char_traitsIcESaIcEEESaIS5_EEixEm
00000000000362ae W _ZNKSt6vectorIiSaIiEE12_M_check_lenEmPKc
0000000000038534 W _ZNKSt6vectorIiSaIiEE4sizeEv
0000000000038512 W _ZNKSt6vectorIiSaIiEE8max_sizeEv
                 U _ZNKSt7__cxx1112basic_stringIcSt11char_traitsIcESaIcEE13find_first_ofERKS4_m@@GLIBCXX_3.4.21
                 U _ZNKSt7__cxx1112basic_stringIcSt11char_traitsIcESaIcEE16find_last_not_ofEPKcm@@GLIBCXX_3.4.21
                 U _ZNKSt7__cxx1112basic_stringIcSt11char_traitsIcESaIcEE17find_first_not_ofEPKcm@@GLIBCXX_3.4.21
                 U _ZNKSt7__cxx1112basic_stringIcSt11char_traitsIcESaIcEE4dataEv@@GLIBCXX_3.4.21
                 U _ZNKSt7__cxx1112basic_stringIcSt11char_traitsIcESaIcEE4findEPKcm@@GLIBCXX_3.4.21
                 U _ZNKSt7__cxx1112basic_stringIcSt11char_traitsIcESaIcEE4findERKS4_m@@GLIBCXX_3.4.21
                 U _ZNKSt7__cxx1112basic_stringIcSt11char_traitsIcESaIcEE4findEcm@@GLIBCXX_3.4.21
                 U _ZNKSt7__cxx1112basic_stringIcSt11char_traitsIcESaIcEE4sizeEv@@GLIBCXX_3.4.21
                 U _ZNKSt7__cxx1112basic_stringIcSt11char_traitsIcESaIcEE5c_strEv@@GLIBCXX_3.4.21
                 U _ZNKSt7__cxx1112basic_stringIcSt11char_traitsIcESaIcEE5emptyEv@@GLIBCXX_3.4.21
                 U _ZNKSt7__cxx1112basic_stringIcSt11char_traitsIcESaIcEE5rfindEcm@@GLIBCXX_3.4.21
                 U _ZNKSt7__cxx1112basic_stringIcSt11char_traitsIcESaIcEE6lengthEv@@GLIBCXX_3.4.21
                 U _ZNKSt7__cxx1112basic_stringIcSt11char_traitsIcESaIcEE6substrEmm@@GLIBCXX_3.4.21
                 U _ZNKSt7__cxx1112basic_stringIcSt11char_traitsIcESaIcEE7_M_dataEv@@GLIBCXX_3.4.21
                 U _ZNKSt7__cxx1112basic_stringIcSt11char_traitsIcESaIcEE7compareEPKc@@GLIBCXX_3.4.21
                 U _ZNKSt7__cxx1112basic_stringIcSt11char_traitsIcESaIcEE7compareERKS4_@@GLIBCXX_3.4.21
                 U _ZNKSt7__cxx1112basic_stringIcSt11char_traitsIcESaIcEE7compareEmmPKc@@GLIBCXX_3.4.21
                 U _ZNKSt7__cxx1112basic_stringIcSt11char_traitsIcESaIcEEixEm@@GLIBCXX_3.4.21
                 U _ZNKSt7__cxx1118basic_stringstreamIcSt11char_traitsIcESaIcEE3strEv@@GLIBCXX_3.4.21
000000000002a876 W _ZNKSt8_Rb_treeINSt7__cxx1112basic_stringIcSt11char_traitsIcESaIcEEESt4pairIKS5_S5_ESt10_Select1stIS8_ESt4lessIS5_ESaIS8_EE11_Alloc_nodeclIS8_EEPSt13_Rb_tree_nodeIS8_ERKT_
00000000000288e0 W _ZNKSt8_Rb_treeINSt7__cxx1112basic_stringIcSt11char_traitsIcESaIcEEESt4pairIKS5_S5_ESt10_Select1stIS8_ESt4lessIS5_ESaIS8_EE13get_allocatorEv
000000000004a126 W _ZNKSt8_Rb_treeINSt7__cxx1112basic_stringIcSt11char_traitsIcESaIcEEESt4pairIKS5_S5_ESt10_Select1stIS8_ESt4lessIS5_ESaIS8_EE14_M_lower_boundEPKSt13_Rb_tree_nodeIS8_EPKSt18_Rb_tree_node_baseRS7_
0000000000029c36 W _ZNKSt8_Rb_treeINSt7__cxx1112basic_stringIcSt11char_traitsIcESaIcEEESt4pairIKS5_S5_ESt10_Select1stIS8_ESt4lessIS5_ESaIS8_EE21_M_get_Node_allocatorEv
00000000000498c8 W _ZNKSt8_Rb_treeINSt7__cxx1112basic_stringIcSt11char_traitsIcESaIcEEESt4pairIKS5_S5_ESt10_Select1stIS8_ESt4lessIS5_ESaIS8_EE3endEv
0000000000049646 W _ZNKSt8_Rb_treeINSt7__cxx1112basic_stringIcSt11char_traitsIcESaIcEEESt4pairIKS5_S5_ESt10_Select1stIS8_ESt4lessIS5_ESaIS8_EE4findERS7_
00000000000279b4 W _ZNKSt8_Rb_treeINSt7__cxx1112basic_stringIcSt11char_traitsIcESaIcEEESt4pairIKS5_S5_ESt10_Select1stIS8_ESt4lessIS5_ESaIS8_EE4sizeEv
00000000000b73fc W _ZNKSt8_Rb_treeINSt7__cxx1112basic_stringIcSt11char_traitsIcESaIcEEESt4pairIKS5_S5_ESt10_Select1stIS8_ESt4lessIS5_ESaIS8_EE5beginEv
000000000004a114 W _ZNKSt8_Rb_treeINSt7__cxx1112basic_stringIcSt11char_traitsIcESaIcEEESt4pairIKS5_S5_ESt10_Select1stIS8_ESt4lessIS5_ESaIS8_EE6_M_endEv
0000000000027daa W _ZNKSt8_Rb_treeINSt7__cxx1112basic_stringIcSt11char_traitsIcESaIcEEESt4pairIKS5_S5_ESt10_Select1stIS8_ESt4lessIS5_ESaIS8_EE7_M_rootEv
000000000002899c W _ZNKSt8_Rb_treeINSt7__cxx1112basic_stringIcSt11char_traitsIcESaIcEEESt4pairIKS5_S5_ESt10_Select1stIS8_ESt4lessIS5_ESaIS8_EE8_M_beginEv
0000000000027f56 W _ZNKSt8_Rb_treeINSt7__cxx1112basic_stringIcSt11char_traitsIcESaIcEEESt4pairIKS5_S5_ESt10_Select1stIS8_ESt4lessIS5_ESaIS8_EE8key_compEv
000000000004c60a W _ZNKSt8_Rb_treeIfSt4pairIKfNSt7__cxx1112basic_stringIcSt11char_traitsIcESaIcEEEESt10_Select1stIS8_ESt4lessIfESaIS8_EE11_Alloc_nodeclIS8_EEPSt13_Rb_tree_nodeIS8_ERKT_
000000000004ab68 W _ZNKSt8_Rb_treeIfSt4pairIKfNSt7__cxx1112basic_stringIcSt11char_traitsIcESaIcEEEESt10_Select1stIS8_ESt4lessIfESaIS8_EE13get_allocatorEv
000000000004bba6 W _ZNKSt8_Rb_treeIfSt4pairIKfNSt7__cxx1112basic_stringIcSt11char_traitsIcESaIcEEEESt10_Select1stIS8_ESt4lessIfESaIS8_EE21_M_get_Node_allocatorEv
000000000004bd58 W _ZNKSt8_Rb_treeIfSt4pairIKfNSt7__cxx1112basic_stringIcSt11char_traitsIcESaIcEEEESt10_Select1stIS8_ESt4lessIfESaIS8_EE4sizeEv
00000000000ba5a6 W _ZNKSt8_Rb_treeIfSt4pairIKfNSt7__cxx1112basic_stringIcSt11char_traitsIcESaIcEEEESt10_Select1stIS8_ESt4lessIfESaIS8_EE7_M_rootEv
00000000000bfdce W _ZNKSt8_Rb_treeIfSt4pairIKfNSt7__cxx1112basic_stringIcSt11char_traitsIcESaIcEEEESt10_Select1stIS8_ESt4lessIfESaIS8_EE8_M_beginEv
000000000004a3cc W _ZNKSt8_Rb_treeIfSt4pairIKfNSt7__cxx1112basic_stringIcSt11char_traitsIcESaIcEEEESt10_Select1stIS8_ESt4lessIfESaIS8_EE8key_compEv
00000000000c3ff4 W _ZNKSt8_Rb_treeIiSt4pairIKi5RouteESt10_Select1stIS3_ESt4lessIiESaIS3_EE11_Alloc_nodeclIS3_EEPSt13_Rb_tree_nodeIS3_ERKT_
00000000000c0f7e W _ZNKSt8_Rb_treeIiSt4pairIKi5RouteESt10_Select1stIS3_ESt4lessIiESaIS3_EE13get_allocatorEv
00000000000c3710 W _ZNKSt8_Rb_treeIiSt4pairIKi5RouteESt10_Select1stIS3_ESt4lessIiESaIS3_EE21_M_get_Node_allocatorEv
00000000000c38a8 W _ZNKSt8_Rb_treeIiSt4pairIKi5RouteESt10_Select1stIS3_ESt4lessIiESaIS3_EE4sizeEv
00000000000bb71e W _ZNKSt8_Rb_treeIiSt4pairIKi5RouteESt10_Select1stIS3_ESt4lessIiESaIS3_EE8key_compEv
0000000000060d7a W _ZNKSt8_Rb_treeIiSt4pairIKiNSt7__cxx1112basic_stringIcSt11char_traitsIcESaIcEEEESt10_Select1stIS8_ESt4lessIiESaIS8_EE11_Alloc_nodeclIS8_EEPSt13_Rb_tree_nodeIS8_ERKT_
000000000005ec8a W _ZNKSt8_Rb_treeIiSt4pairIKiNSt7__cxx1112basic_stringIcSt11char_traitsIcESaIcEEEESt10_Select1stIS8_ESt4lessIiESaIS8_EE13get_allocatorEv
000000000005398c W _ZNKSt8_Rb_treeIiSt4pairIKiNSt7__cxx1112basic_stringIcSt11char_traitsIcESaIcEEEESt10_Select1stIS8_ESt4lessIiESaIS8_EE14_M_lower_boundEPKSt13_Rb_tree_nodeIS8_EPKSt18_Rb_tree_node_baseRS1_
0000000000060304 W _ZNKSt8_Rb_treeIiSt4pairIKiNSt7__cxx1112basic_stringIcSt11char_traitsIcESaIcEEEESt10_Select1stIS8_ESt4lessIiESaIS8_EE21_M_get_Node_allocatorEv
0000000000053b3e W _ZNKSt8_Rb_treeIiSt4pairIKiNSt7__cxx1112basic_stringIcSt11char_traitsIcESaIcEEEESt10_Select1stIS8_ESt4lessIiESaIS8_EE3endEv
000000000005369e W _ZNKSt8_Rb_treeIiSt4pairIKiNSt7__cxx1112basic_stringIcSt11char_traitsIcESaIcEEEESt10_Select1stIS8_ESt4lessIiESaIS8_EE4findERS1_
00000000000605e4 W _ZNKSt8_Rb_treeIiSt4pairIKiNSt7__cxx1112basic_stringIcSt11char_traitsIcESaIcEEEESt10_Select1stIS8_ESt4lessIiESaIS8_EE4sizeEv
000000000005397a W _ZNKSt8_Rb_treeIiSt4pairIKiNSt7__cxx1112basic_stringIcSt11char_traitsIcESaIcEEEESt10_Select1stIS8_ESt4lessIiESaIS8_EE6_M_endEv
000000000005d5b0 W _ZNKSt8_Rb_treeIiSt4pairIKiNSt7__cxx1112basic_stringIcSt11char_traitsIcESaIcEEEESt10_Select1stIS8_ESt4lessIiESaIS8_EE7_M_rootEv
000000000005393e W _ZNKSt8_Rb_treeIiSt4pairIKiNSt7__cxx1112basic_stringIcSt11char_traitsIcESaIcEEEESt10_Select1stIS8_ESt4lessIiESaIS8_EE8_M_beginEv
000000000005db12 W _ZNKSt8_Rb_treeIiSt4pairIKiNSt7__cxx1112basic_stringIcSt11char_traitsIcESaIcEEEESt10_Select1stIS8_ESt4lessIiESaIS8_EE8key_compEv
00000000000c2c36 W _ZNKSt8_Rb_treeIlSt4pairIKlNSt7__cxx1112basic_stringIcSt11char_traitsIcESaIcEEEESt10_Select1stIS8_ESt4lessIlESaIS8_EE11_Alloc_nodeclIS8_EEPSt13_Rb_tree_nodeIS8_ERKT_
00000000000be688 W _ZNKSt8_Rb_treeIlSt4pairIKlNSt7__cxx1112basic_stringIcSt11char_traitsIcESaIcEEEESt10_Select1stIS8_ESt4lessIlESaIS8_EE13get_allocatorEv
00000000000c1eea W _ZNKSt8_Rb_treeIlSt4pairIKlNSt7__cxx1112basic_stringIcSt11char_traitsIcESaIcEEEESt10_Select1stIS8_ESt4lessIlESaIS8_EE21_M_get_Node_allocatorEv
00000000000b9ec4 W _ZNKSt8_Rb_treeIlSt4pairIKlNSt7__cxx1112basic_stringIcSt11char_traitsIcESaIcEEEESt10_Select1stIS8_ESt4lessIlESaIS8_EE4sizeEv
00000000000b8ea4 W _ZNKSt8_Rb_treeIlSt4pairIKlNSt7__cxx1112basic_stringIcSt11char_traitsIcESaIcEEEESt10_Select1stIS8_ESt4lessIlESaIS8_EE7_M_rootEv
00000000000bc04a W _ZNKSt8_Rb_treeIlSt4pairIKlNSt7__cxx1112basic_stringIcSt11char_traitsIcESaIcEEEESt10_Select1stIS8_ESt4lessIlESaIS8_EE8_M_beginEv
00000000000b98c2 W _ZNKSt8_Rb_treeIlSt4pairIKlNSt7__cxx1112basic_stringIcSt11char_traitsIcESaIcEEEESt10_Select1stIS8_ESt4lessIlESaIS8_EE8key_compEv
000000000003783c W _ZNKSt8_Rb_treeIlSt4pairIKlP6ServerESt10_Select1stIS4_ESt4lessIlESaIS4_EE11_Alloc_nodeclIS4_EEPSt13_Rb_tree_nodeIS4_ERKT_
0000000000038f56 W _ZNKSt8_Rb_treeIlSt4pairIKlP6ServerESt10_Select1stIS4_ESt4lessIlESaIS4_EE13get_allocatorEv
000000000003ad6c W _ZNKSt8_Rb_treeIlSt4pairIKlP6ServerESt10_Select1stIS4_ESt4lessIlESaIS4_EE21_M_get_Node_allocatorEv
0000000000035ba8 W _ZNKSt8_Rb_treeIlSt4pairIKlP6ServerESt10_Select1stIS4_ESt4lessIlESaIS4_EE4sizeEv
0000000000035398 W _ZNKSt8_Rb_treeIlSt4pairIKlP6ServerESt10_Select1stIS4_ESt4lessIlESaIS4_EE8key_compEv
000000000003bbb8 W _ZNKSt8_Rb_treeIlSt4pairIKllESt10_Select1stIS2_ESt4lessIlESaIS2_EE11_Alloc_nodeclIS2_EEPSt13_Rb_tree_nodeIS2_ERKT_
000000000003902e W _ZNKSt8_Rb_treeIlSt4pairIKllESt10_Select1stIS2_ESt4lessIlESaIS2_EE13get_allocatorEv
000000000003adca W _ZNKSt8_Rb_treeIlSt4pairIKllESt10_Select1stIS2_ESt4lessIlESaIS2_EE21_M_get_Node_allocatorEv
0000000000036b54 W _ZNKSt8_Rb_treeIlSt4pairIKllESt10_Select1stIS2_ESt4lessIlESaIS2_EE4sizeEv
0000000000036f32 W _ZNKSt8_Rb_treeIlSt4pairIKllESt10_Select1stIS2_ESt4lessIlESaIS2_EE8key_compEv
00000000000c36c6 W _ZNKSt8_Rb_treeIlSt4pairIKlmESt10_Select1stIS2_ESt4lessIlESaIS2_EE11_Alloc_nodeclIS2_EEPSt13_Rb_tree_nodeIS2_ERKT_
00000000000be740 W _ZNKSt8_Rb_treeIlSt4pairIKlmESt10_Select1stIS2_ESt4lessIlESaIS2_EE13get_allocatorEv
00000000000c1f48 W _ZNKSt8_Rb_treeIlSt4pairIKlmESt10_Select1stIS2_ESt4lessIlESaIS2_EE21_M_get_Node_allocatorEv
00000000000bb0d2 W _ZNKSt8_Rb_treeIlSt4pairIKlmESt10_Select1stIS2_ESt4lessIlESaIS2_EE4sizeEv
00000000000baad0 W _ZNKSt8_Rb_treeIlSt4pairIKlmESt10_Select1stIS2_ESt4lessIlESaIS2_EE8key_compEv
                 U _ZNKSt9basic_iosIcSt11char_traitsIcEE4goodEv@@GLIBCXX_3.4
                 U _ZNKSt9basic_iosIcSt11char_traitsIcEE5rdbufEv@@GLIBCXX_3.4
                 U _ZNKSt9basic_iosIcSt11char_traitsIcEEcvPvEv@@GLIBCXX_3.4
00000000000bbc70 W _ZNSaI19ServerConfigurationEC1Ev
00000000000bbc70 W _ZNSaI19ServerConfigurationEC2Ev
00000000000b8a18 W _ZNSaI19ServerConfigurationED1Ev
00000000000b8a18 W _ZNSaI19ServerConfigurationED2Ev
00000000000be0c8 W _ZNSaI5RouteEC1ERKS0_
000000000005e232 W _ZNSaI5RouteEC1Ev
00000000000be0c8 W _ZNSaI5RouteEC2ERKS0_
000000000005e232 W _ZNSaI5RouteEC2Ev
000000000005d30c W _ZNSaI5RouteED1Ev
000000000005d30c W _ZNSaI5RouteED2Ev
0000000000037076 W _ZNSaI6ServerEC1Ev
0000000000037076 W _ZNSaI6ServerEC2Ev
000000000003415a W _ZNSaI6ServerED1Ev
000000000003415a W _ZNSaI6ServerED2Ev
00000000000570fe W _ZNSaINSt7__cxx1112basic_stringIcSt11char_traitsIcESaIcEEEEC1ERKS5_
00000000000440a6 W _ZNSaINSt7__cxx1112basic_stringIcSt11char_traitsIcESaIcEEEEC1Ev
00000000000570fe W _ZNSaINSt7__cxx1112basic_stringIcSt11char_traitsIcESaIcEEEEC2ERKS5_
00000000000440a6 W _ZNSaINSt7__cxx1112basic_stringIcSt11char_traitsIcESaIcEEEEC2Ev
0000000000043962 W _ZNSaINSt7__cxx1112basic_stringIcSt11char_traitsIcESaIcEEEED1Ev
0000000000043962 W _ZNSaINSt7__cxx1112basic_stringIcSt11char_traitsIcESaIcEEEED2Ev
0000000000028332 W _ZNSaISt13_Rb_tree_nodeISt4pairIKNSt7__cxx1112basic_stringIcSt11char_traitsIcESaIcEEES6_EEEC1ERKSA_
0000000000028156 W _ZNSaISt13_Rb_tree_nodeISt4pairIKNSt7__cxx1112basic_stringIcSt11char_traitsIcESaIcEEES6_EEEC1Ev
0000000000028332 W _ZNSaISt13_Rb_tree_nodeISt4pairIKNSt7__cxx1112basic_stringIcSt11char_traitsIcESaIcEEES6_EEEC2ERKSA_
0000000000028156 W _ZNSaISt13_Rb_tree_nodeISt4pairIKNSt7__cxx1112basic_stringIcSt11char_traitsIcESaIcEEES6_EEEC2Ev
000000000002758c W _ZNSaISt13_Rb_tree_nodeISt4pairIKNSt7__cxx1112basic_stringIcSt11char_traitsIcESaIcEEES6_EEED1Ev
000000000002758c W _ZNSaISt13_Rb_tree_nodeISt4pairIKNSt7__cxx1112basic_stringIcSt11char_traitsIcESaIcEEES6_EEED2Ev
00000000000bd58e W _ZNSaISt13_Rb_tree_nodeISt4pairIKfNSt7__cxx1112basic_stringIcSt11char_traitsIcESaIcEEEEEEC1ERKSA_
000000000004a556 W _ZNSaISt13_Rb_tree_nodeISt4pairIKfNSt7__cxx1112basic_stringIcSt11char_traitsIcESaIcEEEEEEC1Ev
00000000000bd58e W _ZNSaISt13_Rb_tree_nodeISt4pairIKfNSt7__cxx1112basic_stringIcSt11char_traitsIcESaIcEEEEEEC2ERKSA_
000000000004a556 W _ZNSaISt13_Rb_tree_nodeISt4pairIKfNSt7__cxx1112basic_stringIcSt11char_traitsIcESaIcEEEEEEC2Ev
0000000000049316 W _ZNSaISt13_Rb_tree_nodeISt4pairIKfNSt7__cxx1112basic_stringIcSt11char_traitsIcESaIcEEEEEED1Ev
0000000000049316 W _ZNSaISt13_Rb_tree_nodeISt4pairIKfNSt7__cxx1112basic_stringIcSt11char_traitsIcESaIcEEEEEED2Ev
00000000000be0ee W _ZNSaISt13_Rb_tree_nodeISt4pairIKi5RouteEEEC1Ev
00000000000be0ee W _ZNSaISt13_Rb_tree_nodeISt4pairIKi5RouteEEEC2Ev
00000000000b8130 W _ZNSaISt13_Rb_tree_nodeISt4pairIKi5RouteEEED1Ev
00000000000b8130 W _ZNSaISt13_Rb_tree_nodeISt4pairIKi5RouteEEED2Ev
000000000005e064 W _ZNSaISt13_Rb_tree_nodeISt4pairIKiNSt7__cxx1112basic_stringIcSt11char_traitsIcESaIcEEEEEEC1Ev
000000000005e064 W _ZNSaISt13_Rb_tree_nodeISt4pairIKiNSt7__cxx1112basic_stringIcSt11char_traitsIcESaIcEEEEEEC2Ev
000000000005bd08 W _ZNSaISt13_Rb_tree_nodeISt4pairIKiNSt7__cxx1112basic_stringIcSt11char_traitsIcESaIcEEEEEED1Ev
000000000005bd08 W _ZNSaISt13_Rb_tree_nodeISt4pairIKiNSt7__cxx1112basic_stringIcSt11char_traitsIcESaIcEEEEEED2Ev
00000000000bbcd2 W _ZNSaISt13_Rb_tree_nodeISt4pairIKlNSt7__cxx1112basic_stringIcSt11char_traitsIcESaIcEEEEEEC1Ev
00000000000bbcd2 W _ZNSaISt13_Rb_tree_nodeISt4pairIKlNSt7__cxx1112basic_stringIcSt11char_traitsIcESaIcEEEEEEC2Ev
00000000000b5e80 W _ZNSaISt13_Rb_tree_nodeISt4pairIKlNSt7__cxx1112basic_stringIcSt11char_traitsIcESaIcEEEEEED1Ev
00000000000b5e80 W _ZNSaISt13_Rb_tree_nodeISt4pairIKlNSt7__cxx1112basic_stringIcSt11char_traitsIcESaIcEEEEEED2Ev
0000000000037106 W _ZNSaISt13_Rb_tree_nodeISt4pairIKlP6ServerEEEC1Ev
0000000000037106 W _ZNSaISt13_Rb_tree_nodeISt4pairIKlP6ServerEEEC2Ev
000000000003157a W _ZNSaISt13_Rb_tree_nodeISt4pairIKlP6ServerEEED1Ev
000000000003157a W _ZNSaISt13_Rb_tree_nodeISt4pairIKlP6ServerEEED2Ev
000000000003731a W _ZNSaISt13_Rb_tree_nodeISt4pairIKllEEEC1Ev
000000000003731a W _ZNSaISt13_Rb_tree_nodeISt4pairIKllEEEC2Ev
000000000003177e W _ZNSaISt13_Rb_tree_nodeISt4pairIKllEEED1Ev
000000000003177e W _ZNSaISt13_Rb_tree_nodeISt4pairIKllEEED2Ev
00000000000bbe94 W _ZNSaISt13_Rb_tree_nodeISt4pairIKlmEEEC1Ev
00000000000bbe94 W _ZNSaISt13_Rb_tree_nodeISt4pairIKlmEEEC2Ev
00000000000b5f5a W _ZNSaISt13_Rb_tree_nodeISt4pairIKlmEEED1Ev
00000000000b5f5a W _ZNSaISt13_Rb_tree_nodeISt4pairIKlmEEED2Ev
0000000000029c44 W _ZNSaISt4pairIKNSt7__cxx1112basic_stringIcSt11char_traitsIcESaIcEEES5_EEC1ISt13_Rb_tree_nodeIS7_EEERKSaIT_E
0000000000029c44 W _ZNSaISt4pairIKNSt7__cxx1112basic_stringIcSt11char_traitsIcESaIcEEES5_EEC2ISt13_Rb_tree_nodeIS7_EEERKSaIT_E
0000000000028914 W _ZNSaISt4pairIKNSt7__cxx1112basic_stringIcSt11char_traitsIcESaIcEEES5_EED1Ev
0000000000028914 W _ZNSaISt4pairIKNSt7__cxx1112basic_stringIcSt11char_traitsIcESaIcEEES5_EED2Ev
000000000004bbb4 W _ZNSaISt4pairIKfNSt7__cxx1112basic_stringIcSt11char_traitsIcESaIcEEEEEC1ISt13_Rb_tree_nodeIS7_EEERKSaIT_E
000000000004bbb4 W _ZNSaISt4pairIKfNSt7__cxx1112basic_stringIcSt11char_traitsIcESaIcEEEEEC2ISt13_Rb_tree_nodeIS7_EEERKSaIT_E
000000000004ab9c W _ZNSaISt4pairIKfNSt7__cxx1112basic_stringIcSt11char_traitsIcESaIcEEEEED1Ev
000000000004ab9c W _ZNSaISt4pairIKfNSt7__cxx1112basic_stringIcSt11char_traitsIcESaIcEEEEED2Ev
00000000000c371e W _ZNSaISt4pairIKi5RouteEEC1ISt13_Rb_tree_nodeIS2_EEERKSaIT_E
00000000000c371e W _ZNSaISt4pairIKi5RouteEEC2ISt13_Rb_tree_nodeIS2_EEERKSaIT_E
00000000000c0fb2 W _ZNSaISt4pairIKi5RouteEED1Ev
00000000000c0fb2 W _ZNSaISt4pairIKi5RouteEED2Ev
0000000000060312 W _ZNSaISt4pairIKiNSt7__cxx1112basic_stringIcSt11char_traitsIcESaIcEEEEEC1ISt13_Rb_tree_nodeIS7_EEERKSaIT_E
0000000000060312 W _ZNSaISt4pairIKiNSt7__cxx1112basic_stringIcSt11char_traitsIcESaIcEEEEEC2ISt13_Rb_tree_nodeIS7_EEERKSaIT_E
000000000005ecbe W _ZNSaISt4pairIKiNSt7__cxx1112basic_stringIcSt11char_traitsIcESaIcEEEEED1Ev
000000000005ecbe W _ZNSaISt4pairIKiNSt7__cxx1112basic_stringIcSt11char_traitsIcESaIcEEEEED2Ev
00000000000c1ef8 W _ZNSaISt4pairIKlNSt7__cxx1112basic_stringIcSt11char_traitsIcESaIcEEEEEC1ISt13_Rb_tree_nodeIS7_EEERKSaIT_E
00000000000c1ef8 W _ZNSaISt4pairIKlNSt7__cxx1112basic_stringIcSt11char_traitsIcESaIcEEEEEC2ISt13_Rb_tree_nodeIS7_EEERKSaIT_E
00000000000be6bc W _ZNSaISt4pairIKlNSt7__cxx1112basic_stringIcSt11char_traitsIcESaIcEEEEED1Ev
00000000000be6bc W _ZNSaISt4pairIKlNSt7__cxx1112basic_stringIcSt11char_traitsIcESaIcEEEEED2Ev
000000000003ad7a W _ZNSaISt4pairIKlP6ServerEEC1ISt13_Rb_tree_nodeIS3_EEERKSaIT_E
000000000003ad7a W _ZNSaISt4pairIKlP6ServerEEC2ISt13_Rb_tree_nodeIS3_EEERKSaIT_E
0000000000038f8a W _ZNSaISt4pairIKlP6ServerEED1Ev
0000000000038f8a W _ZNSaISt4pairIKlP6ServerEED2Ev
000000000003add8 W _ZNSaISt4pairIKllEEC1ISt13_Rb_tree_nodeIS1_EEERKSaIT_E
000000000003add8 W _ZNSaISt4pairIKllEEC2ISt13_Rb_tree_nodeIS1_EEERKSaIT_E
0000000000039062 W _ZNSaISt4pairIKllEED1Ev
0000000000039062 W _ZNSaISt4pairIKllEED2Ev
00000000000c1f56 W _ZNSaISt4pairIKlmEEC1ISt13_Rb_tree_nodeIS1_EEERKSaIT_E
00000000000c1f56 W _ZNSaISt4pairIKlmEEC2ISt13_Rb_tree_nodeIS1_EEERKSaIT_E
00000000000be774 W _ZNSaISt4pairIKlmEED1Ev
00000000000be774 W _ZNSaISt4pairIKlmEED2Ev
                 U _ZNSaIcEC1Ev@@GLIBCXX_3.4
                 U _ZNSaIcED1Ev@@GLIBCXX_3.4
                 U _ZNSaIcED2Ev@@GLIBCXX_3.4
00000000000cd154 W _ZNSaIiEC1ERKS_
00000000000372b6 W _ZNSaIiEC1Ev
00000000000cd154 W _ZNSaIiEC2ERKS_
00000000000372b6 W _ZNSaIiEC2Ev
0000000000034370 W _ZNSaIiED1Ev
0000000000034370 W _ZNSaIiED2Ev
                 U _ZNSirsEPFRSt8ios_baseS0_E@@GLIBCXX_3.4
                 U _ZNSirsERi@@GLIBCXX_3.4
                 U _ZNSolsEPFRSoS_E@@GLIBCXX_3.4
                 U _ZNSolsEPFRSt8ios_baseS0_E@@GLIBCXX_3.4
                 U _ZNSolsEf@@GLIBCXX_3.4
                 U _ZNSolsEi@@GLIBCXX_3.4
                 U _ZNSolsEj@@GLIBCXX_3.4
00000000000becec W _ZNSt11__copy_moveILb0ELb0ESt26random_access_iterator_tagE8__copy_mIP19ServerConfigurationS4_EET0_T_S6_S5_
000000000005f38a W _ZNSt11__copy_moveILb0ELb0ESt26random_access_iterator_tagE8__copy_mIP5RouteS4_EET0_T_S6_S5_
00000000000bec31 W _ZNSt11__copy_moveILb0ELb0ESt26random_access_iterator_tagE8__copy_mIPK19ServerConfigurationPS3_EET0_T_S8_S7_
000000000005f22f W _ZNSt11__copy_moveILb0ELb0ESt26random_access_iterator_tagE8__copy_mIPK5RoutePS3_EET0_T_S8_S7_
00000000000444aa W _ZNSt11__copy_moveILb0ELb0ESt26random_access_iterator_tagE8__copy_mIPKNSt7__cxx1112basic_stringIcSt11char_traitsIcESaIcEEEPS8_EET0_T_SD_SC_
000000000004454b W _ZNSt11__copy_moveILb0ELb0ESt26random_access_iterator_tagE8__copy_mIPNSt7__cxx1112basic_stringIcSt11char_traitsIcESaIcEEES9_EET0_T_SB_SA_
000000000003b24b W _ZNSt11__copy_moveILb0ELb1ESt26random_access_iterator_tagE8__copy_mIiEEPT_PKS3_S6_S4_
000000000005170f W _ZNSt11__iter_swapILb1EE9iter_swapIN9__gnu_cxx17__normal_iteratorIPNSt7__cxx1112basic_stringIcSt11char_traitsIcESaIcEEESt6vectorIS9_SaIS9_EEEESE_EEvT_T0_
00000000000c6467 W _ZNSt11char_traitsIcE11eq_int_typeERKiS2_
00000000000c641c W _ZNSt11char_traitsIcE12to_char_typeERKi
00000000000c64f9 W _ZNSt11char_traitsIcE3eofEv
0000000000025b8d W _ZNSt11char_traitsIcE6lengthEPKc
0000000000041ddd W _ZNSt11char_traitsIcE7compareEPKcS2_m
00000000000bc47c W _ZNSt12_Destroy_auxILb0EE9__destroyIN9__gnu_cxx17__normal_iteratorIP19ServerConfigurationSt6vectorIS4_SaIS4_EEEEEEvT_SA_
000000000005e69c W _ZNSt12_Destroy_auxILb0EE9__destroyIN9__gnu_cxx17__normal_iteratorIP5RouteSt6vectorIS4_SaIS4_EEEEEEvT_SA_
00000000000441fe W _ZNSt12_Destroy_auxILb0EE9__destroyIN9__gnu_cxx17__normal_iteratorIPNSt7__cxx1112basic_stringIcSt11char_traitsIcESaIcEEESt6vectorIS9_SaIS9_EEEEEEvT_SF_
00000000000bbc97 W _ZNSt12_Destroy_auxILb0EE9__destroyIP19ServerConfigurationEEvT_S4_
000000000005e259 W _ZNSt12_Destroy_auxILb0EE9__destroyIP5RouteEEvT_S4_
00000000000370cb W _ZNSt12_Destroy_auxILb0EE9__destroyIP6ServerEEvT_S4_
00000000000440cd W _ZNSt12_Destroy_auxILb0EE9__destroyIPNSt7__cxx1112basic_stringIcSt11char_traitsIcESaIcEEEEEvT_S9_
000000000003730b W _ZNSt12_Destroy_auxILb1EE9__destroyIPiEEvT_S3_
00000000000b9098 W _ZNSt12_Vector_baseI19ServerConfigurationSaIS0_EE11_M_allocateEm
00000000000b896e W _ZNSt12_Vector_baseI19ServerConfigurationSaIS0_EE12_Vector_implC1Ev
00000000000b896e W _ZNSt12_Vector_baseI19ServerConfigurationSaIS0_EE12_Vector_implC2Ev
00000000000b5d2a W _ZNSt12_Vector_baseI19ServerConfigurationSaIS0_EE12_Vector_implD1Ev
00000000000b5d2a W _ZNSt12_Vector_baseI19ServerConfigurationSaIS0_EE12_Vector_implD2Ev
00000000000b6746 W _ZNSt12_Vector_baseI19ServerConfigurationSaIS0_EE13_M_deallocateEPS0_m
00000000000b5e2c W _ZNSt12_Vector_baseI19ServerConfigurationSaIS0_EE19_M_get_Tp_allocatorEv
00000000000b5d46 W _ZNSt12_Vector_baseI19ServerConfigurationSaIS0_EEC1Ev
00000000000b5d46 W _ZNSt12_Vector_baseI19ServerConfigurationSaIS0_EEC2Ev
00000000000b5d62 W _ZNSt12_Vector_baseI19ServerConfigurationSaIS0_EED1Ev
00000000000b5d62 W _ZNSt12_Vector_baseI19ServerConfigurationSaIS0_EED2Ev
000000000005d732 W _ZNSt12_Vector_baseI5RouteSaIS0_EE11_M_allocateEm
00000000000bb464 W _ZNSt12_Vector_baseI5RouteSaIS0_EE12_Vector_implC1ERKS1_
000000000005d262 W _ZNSt12_Vector_baseI5RouteSaIS0_EE12_Vector_implC1Ev
00000000000bb464 W _ZNSt12_Vector_baseI5RouteSaIS0_EE12_Vector_implC2ERKS1_
000000000005d262 W _ZNSt12_Vector_baseI5RouteSaIS0_EE12_Vector_implC2Ev
000000000005bdc6 W _ZNSt12_Vector_baseI5RouteSaIS0_EE12_Vector_implD1Ev
000000000005bdc6 W _ZNSt12_Vector_baseI5RouteSaIS0_EE12_Vector_implD2Ev
000000000005c230 W _ZNSt12_Vector_baseI5RouteSaIS0_EE13_M_deallocateEPS0_m
00000000000bb518 W _ZNSt12_Vector_baseI5RouteSaIS0_EE17_M_create_storageEm
000000000005beb8 W _ZNSt12_Vector_baseI5RouteSaIS0_EE19_M_get_Tp_allocatorEv
00000000000b80b4 W _ZNSt12_Vector_baseI5RouteSaIS0_EEC1EmRKS1_
000000000005bde2 W _ZNSt12_Vector_baseI5RouteSaIS0_EEC1Ev
00000000000b80b4 W _ZNSt12_Vector_baseI5RouteSaIS0_EEC2EmRKS1_
000000000005bde2 W _ZNSt12_Vector_baseI5RouteSaIS0_EEC2Ev
000000000005bdfe W _ZNSt12_Vector_baseI5RouteSaIS0_EED1Ev
000000000005bdfe W _ZNSt12_Vector_baseI5RouteSaIS0_EED2Ev
0000000000034802 W _ZNSt12_Vector_baseI6ServerSaIS0_EE11_M_allocateEm
00000000000340b0 W _ZNSt12_Vector_baseI6ServerSaIS0_EE12_Vector_implC1Ev
00000000000340b0 W _ZNSt12_Vector_baseI6ServerSaIS0_EE12_Vector_implC2Ev
0000000000031424 W _ZNSt12_Vector_baseI6ServerSaIS0_EE12_Vector_implD1Ev
0000000000031424 W _ZNSt12_Vector_baseI6ServerSaIS0_EE12_Vector_implD2Ev
0000000000034176 W _ZNSt12_Vector_baseI6ServerSaIS0_EE13_M_deallocateEPS0_m
0000000000031526 W _ZNSt12_Vector_baseI6ServerSaIS0_EE19_M_get_Tp_allocatorEv
0000000000031440 W _ZNSt12_Vector_baseI6ServerSaIS0_EEC1Ev
0000000000031440 W _ZNSt12_Vector_baseI6ServerSaIS0_EEC2Ev
000000000003145c W _ZNSt12_Vector_baseI6ServerSaIS0_EED1Ev
000000000003145c W _ZNSt12_Vector_baseI6ServerSaIS0_EED2Ev
0000000000043a08 W _ZNSt12_Vector_baseINSt7__cxx1112basic_stringIcSt11char_traitsIcESaIcEEESaIS5_EE11_M_allocateEm
0000000000056f84 W _ZNSt12_Vector_baseINSt7__cxx1112basic_stringIcSt11char_traitsIcESaIcEEESaIS5_EE12_Vector_implC1ERKS6_
00000000000438b8 W _ZNSt12_Vector_baseINSt7__cxx1112basic_stringIcSt11char_traitsIcESaIcEEESaIS5_EE12_Vector_implC1Ev
0000000000056f84 W _ZNSt12_Vector_baseINSt7__cxx1112basic_stringIcSt11char_traitsIcESaIcEEESaIS5_EE12_Vector_implC2ERKS6_
00000000000438b8 W _ZNSt12_Vector_baseINSt7__cxx1112basic_stringIcSt11char_traitsIcESaIcEEESaIS5_EE12_Vector_implC2Ev
0000000000042c16 W _ZNSt12_Vector_baseINSt7__cxx1112basic_stringIcSt11char_traitsIcESaIcEEESaIS5_EE12_Vector_implD1Ev
0000000000042c16 W _ZNSt12_Vector_baseINSt7__cxx1112basic_stringIcSt11char_traitsIcESaIcEEESaIS5_EE12_Vector_implD2Ev
000000000004319c W _ZNSt12_Vector_baseINSt7__cxx1112basic_stringIcSt11char_traitsIcESaIcEEESaIS5_EE13_M_deallocateEPS5_m
0000000000057038 W _ZNSt12_Vector_baseINSt7__cxx1112basic_stringIcSt11char_traitsIcESaIcEEESaIS5_EE17_M_create_storageEm
0000000000042d08 W _ZNSt12_Vector_baseINSt7__cxx1112basic_stringIcSt11char_traitsIcESaIcEEESaIS5_EE19_M_get_Tp_allocatorEv
0000000000056f24 W _ZNSt12_Vector_baseINSt7__cxx1112basic_stringIcSt11char_traitsIcESaIcEEESaIS5_EEC1EmRKS6_
0000000000042c32 W _ZNSt12_Vector_baseINSt7__cxx1112basic_stringIcSt11char_traitsIcESaIcEEESaIS5_EEC1Ev
0000000000056f24 W _ZNSt12_Vector_baseINSt7__cxx1112basic_stringIcSt11char_traitsIcESaIcEEESaIS5_EEC2EmRKS6_
0000000000042c32 W _ZNSt12_Vector_baseINSt7__cxx1112basic_stringIcSt11char_traitsIcESaIcEEESaIS5_EEC2Ev
0000000000042c4e W _ZNSt12_Vector_baseINSt7__cxx1112basic_stringIcSt11char_traitsIcESaIcEEESaIS5_EED1Ev
0000000000042c4e W _ZNSt12_Vector_baseINSt7__cxx1112basic_stringIcSt11char_traitsIcESaIcEEESaIS5_EED2Ev
0000000000036554 W _ZNSt12_Vector_baseIiSaIiEE11_M_allocateEm
00000000000ccdb8 W _ZNSt12_Vector_baseIiSaIiEE12_Vector_implC1ERKS0_
00000000000342c6 W _ZNSt12_Vector_baseIiSaIiEE12_Vector_implC1Ev
00000000000ccdb8 W _ZNSt12_Vector_baseIiSaIiEE12_Vector_implC2ERKS0_
00000000000342c6 W _ZNSt12_Vector_baseIiSaIiEE12_Vector_implC2Ev
0000000000031638 W _ZNSt12_Vector_baseIiSaIiEE12_Vector_implD1Ev
0000000000031638 W _ZNSt12_Vector_baseIiSaIiEE12_Vector_implD2Ev
000000000003438c W _ZNSt12_Vector_baseIiSaIiEE13_M_deallocateEPim
000000000003172a W _ZNSt12_Vector_baseIiSaIiEE19_M_get_Tp_allocatorEv
00000000000cc8ba W _ZNSt12_Vector_baseIiSaIiEEC1ERKS0_
0000000000031654 W _ZNSt12_Vector_baseIiSaIiEEC1Ev
00000000000cc8ba W _ZNSt12_Vector_baseIiSaIiEEC2ERKS0_
0000000000031654 W _ZNSt12_Vector_baseIiSaIiEEC2Ev
0000000000031670 W _ZNSt12_Vector_baseIiSaIiEED1Ev
0000000000031670 W _ZNSt12_Vector_baseIiSaIiEED2Ev
0000000000027c44 W _ZNSt13_Rb_tree_nodeISt4pairIKNSt7__cxx1112basic_stringIcSt11char_traitsIcESaIcEEES6_EE9_M_valptrEv
0000000000049628 W _ZNSt13_Rb_tree_nodeISt4pairIKfNSt7__cxx1112basic_stringIcSt11char_traitsIcESaIcEEEEE9_M_valptrEv
00000000000bb728 W _ZNSt13_Rb_tree_nodeISt4pairIKi5RouteEE9_M_valptrEv
000000000005caac W _ZNSt13_Rb_tree_nodeISt4pairIKiNSt7__cxx1112basic_stringIcSt11char_traitsIcESaIcEEEEE9_M_valptrEv
00000000000b98cc W _ZNSt13_Rb_tree_nodeISt4pairIKlNSt7__cxx1112basic_stringIcSt11char_traitsIcESaIcEEEEE9_M_valptrEv
0000000000032fac W _ZNSt13_Rb_tree_nodeISt4pairIKlP6ServerEE9_M_valptrEv
0000000000036f3c W _ZNSt13_Rb_tree_nodeISt4pairIKllEE9_M_valptrEv
00000000000baada W _ZNSt13_Rb_tree_nodeISt4pairIKlmEE9_M_valptrEv
                 U _ZNSt14basic_ifstreamIcSt11char_traitsIcEE5closeEv@@GLIBCXX_3.4
                 U _ZNSt14basic_ifstreamIcSt11char_traitsIcEE7is_openEv@@GLIBCXX_3.4
                 U _ZNSt14basic_ifstreamIcSt11char_traitsIcEEC1EPKcSt13_Ios_Openmode@@GLIBCXX_3.4
                 U _ZNSt14basic_ifstreamIcSt11char_traitsIcEED1Ev@@GLIBCXX_3.4
                 U _ZNSt14basic_ofstreamIcSt11char_traitsIcEE4openEPKcSt13_Ios_Openmode@@GLIBCXX_3.4
                 U _ZNSt14basic_ofstreamIcSt11char_traitsIcEE5closeEv@@GLIBCXX_3.4
                 U _ZNSt14basic_ofstreamIcSt11char_traitsIcEE7is_openEv@@GLIBCXX_3.4
                 U _ZNSt14basic_ofstreamIcSt11char_traitsIcEEC1Ev@@GLIBCXX_3.4
                 U _ZNSt14basic_ofstreamIcSt11char_traitsIcEED1Ev@@GLIBCXX_3.4
0000000000025cc0 W _ZNSt15_Rb_tree_header8_M_resetEv
0000000000025c6c W _ZNSt15_Rb_tree_headerC1Ev
0000000000025c6c W _ZNSt15_Rb_tree_headerC2Ev
                 U _ZNSt15basic_streambufIcSt11char_traitsIcEE5sgetcEv@@GLIBCXX_3.4
                 U _ZNSt15basic_streambufIcSt11char_traitsIcEE6sbumpcEv@@GLIBCXX_3.4
00000000000bbbc2 W _ZNSt16reverse_iteratorISt17_Rb_tree_iteratorISt4pairIKi5RouteEEEC1ES5_
00000000000bbbc2 W _ZNSt16reverse_iteratorISt17_Rb_tree_iteratorISt4pairIKi5RouteEEEC2ES5_
0000000000028108 W _ZNSt17_Rb_tree_iteratorISt4pairIKNSt7__cxx1112basic_stringIcSt11char_traitsIcESaIcEEES6_EEC1EPSt18_Rb_tree_node_base
00000000000b5296 W _ZNSt17_Rb_tree_iteratorISt4pairIKNSt7__cxx1112basic_stringIcSt11char_traitsIcESaIcEEES6_EEC1Ev
0000000000028108 W _ZNSt17_Rb_tree_iteratorISt4pairIKNSt7__cxx1112basic_stringIcSt11char_traitsIcESaIcEEES6_EEC2EPSt18_Rb_tree_node_base
00000000000b5296 W _ZNSt17_Rb_tree_iteratorISt4pairIKNSt7__cxx1112basic_stringIcSt11char_traitsIcESaIcEEES6_EEC2Ev
000000000002a79a W _ZNSt17_Rb_tree_iteratorISt4pairIKNSt7__cxx1112basic_stringIcSt11char_traitsIcESaIcEEES6_EEmmEv
00000000000272aa W _ZNSt17_Rb_tree_iteratorISt4pairIKNSt7__cxx1112basic_stringIcSt11char_traitsIcESaIcEEES6_EEppEi
000000000002a808 W _ZNSt17_Rb_tree_iteratorISt4pairIKNSt7__cxx1112basic_stringIcSt11char_traitsIcESaIcEEES6_EEppEv
000000000004a0c6 W _ZNSt17_Rb_tree_iteratorISt4pairIKfNSt7__cxx1112basic_stringIcSt11char_traitsIcESaIcEEEEEC1EPSt18_Rb_tree_node_base
000000000004a0c6 W _ZNSt17_Rb_tree_iteratorISt4pairIKfNSt7__cxx1112basic_stringIcSt11char_traitsIcESaIcEEEEEC2EPSt18_Rb_tree_node_base
000000000004c52e W _ZNSt17_Rb_tree_iteratorISt4pairIKfNSt7__cxx1112basic_stringIcSt11char_traitsIcESaIcEEEEEmmEv
0000000000048916 W _ZNSt17_Rb_tree_iteratorISt4pairIKfNSt7__cxx1112basic_stringIcSt11char_traitsIcESaIcEEEEEppEi
000000000004c59c W _ZNSt17_Rb_tree_iteratorISt4pairIKfNSt7__cxx1112basic_stringIcSt11char_traitsIcESaIcEEEEEppEv
00000000000bbb82 W _ZNSt17_Rb_tree_iteratorISt4pairIKi5RouteEEC1EPSt18_Rb_tree_node_base
00000000000bbb82 W _ZNSt17_Rb_tree_iteratorISt4pairIKi5RouteEEC2EPSt18_Rb_tree_node_base
00000000000bbc02 W _ZNSt17_Rb_tree_iteratorISt4pairIKi5RouteEEmmEv
00000000000c3f86 W _ZNSt17_Rb_tree_iteratorISt4pairIKi5RouteEEppEv
000000000005dc9c W _ZNSt17_Rb_tree_iteratorISt4pairIKiNSt7__cxx1112basic_stringIcSt11char_traitsIcESaIcEEEEEC1EPSt18_Rb_tree_node_base
000000000005dc9c W _ZNSt17_Rb_tree_iteratorISt4pairIKiNSt7__cxx1112basic_stringIcSt11char_traitsIcESaIcEEEEEC2EPSt18_Rb_tree_node_base
0000000000060c9e W _ZNSt17_Rb_tree_iteratorISt4pairIKiNSt7__cxx1112basic_stringIcSt11char_traitsIcESaIcEEEEEmmEv
000000000005b1a8 W _ZNSt17_Rb_tree_iteratorISt4pairIKiNSt7__cxx1112basic_stringIcSt11char_traitsIcESaIcEEEEEppEi
0000000000060d0c W _ZNSt17_Rb_tree_iteratorISt4pairIKiNSt7__cxx1112basic_stringIcSt11char_traitsIcESaIcEEEEEppEv
00000000000bc9d4 W _ZNSt17_Rb_tree_iteratorISt4pairIKlNSt7__cxx1112basic_stringIcSt11char_traitsIcESaIcEEEEEC1EPSt18_Rb_tree_node_base
00000000000bc9d4 W _ZNSt17_Rb_tree_iteratorISt4pairIKlNSt7__cxx1112basic_stringIcSt11char_traitsIcESaIcEEEEEC2EPSt18_Rb_tree_node_base
00000000000c2b5a W _ZNSt17_Rb_tree_iteratorISt4pairIKlNSt7__cxx1112basic_stringIcSt11char_traitsIcESaIcEEEEEmmEv
00000000000c2bc8 W _ZNSt17_Rb_tree_iteratorISt4pairIKlNSt7__cxx1112basic_stringIcSt11char_traitsIcESaIcEEEEEppEv
000000000003530c W _ZNSt17_Rb_tree_iteratorISt4pairIKlP6ServerEEC1EPSt18_Rb_tree_node_base
000000000003530c W _ZNSt17_Rb_tree_iteratorISt4pairIKlP6ServerEEC2EPSt18_Rb_tree_node_base
00000000000376d6 W _ZNSt17_Rb_tree_iteratorISt4pairIKlP6ServerEEmmEv
0000000000030af8 W _ZNSt17_Rb_tree_iteratorISt4pairIKlP6ServerEEppEi
000000000003b1de W _ZNSt17_Rb_tree_iteratorISt4pairIKlP6ServerEEppEv
00000000000365ba W _ZNSt17_Rb_tree_iteratorISt4pairIKllEEC1EPSt18_Rb_tree_node_base
00000000000365ba W _ZNSt17_Rb_tree_iteratorISt4pairIKllEEC2EPSt18_Rb_tree_node_base
000000000003badc W _ZNSt17_Rb_tree_iteratorISt4pairIKllEEmmEv
000000000003bb4a W _ZNSt17_Rb_tree_iteratorISt4pairIKllEEppEv
00000000000ba512 W _ZNSt17_Rb_tree_iteratorISt4pairIKlmEEC1EPSt18_Rb_tree_node_base
00000000000ba512 W _ZNSt17_Rb_tree_iteratorISt4pairIKlmEEC2EPSt18_Rb_tree_node_base
00000000000c35ea W _ZNSt17_Rb_tree_iteratorISt4pairIKlmEEmmEv
00000000000c3658 W _ZNSt17_Rb_tree_iteratorISt4pairIKlmEEppEv
0000000000025c1a W _ZNSt18_Rb_tree_node_base10_S_maximumEPS_
0000000000025bc8 W _ZNSt18_Rb_tree_node_base10_S_minimumEPS_
00000000000c6520 W _ZNSt19istreambuf_iteratorIcSt11char_traitsIcEEC1ERSi
00000000000c662e W _ZNSt19istreambuf_iteratorIcSt11char_traitsIcEEC1Ev
00000000000c6520 W _ZNSt19istreambuf_iteratorIcSt11char_traitsIcEEC2ERSi
00000000000c662e W _ZNSt19istreambuf_iteratorIcSt11char_traitsIcEEC2Ev
00000000000c6f1c W _ZNSt19istreambuf_iteratorIcSt11char_traitsIcEEppEv
0000000000028358 W _ZNSt20_Rb_tree_key_compareISt4lessINSt7__cxx1112basic_stringIcSt11char_traitsIcESaIcEEEEEC1ERKS7_
0000000000028172 W _ZNSt20_Rb_tree_key_compareISt4lessINSt7__cxx1112basic_stringIcSt11char_traitsIcESaIcEEEEEC1Ev
0000000000028358 W _ZNSt20_Rb_tree_key_compareISt4lessINSt7__cxx1112basic_stringIcSt11char_traitsIcESaIcEEEEEC2ERKS7_
0000000000028172 W _ZNSt20_Rb_tree_key_compareISt4lessINSt7__cxx1112basic_stringIcSt11char_traitsIcESaIcEEEEEC2Ev
00000000000bd5b4 W _ZNSt20_Rb_tree_key_compareISt4lessIfEEC1ERKS1_
000000000004a572 W _ZNSt20_Rb_tree_key_compareISt4lessIfEEC1Ev
00000000000bd5b4 W _ZNSt20_Rb_tree_key_compareISt4lessIfEEC2ERKS1_
000000000004a572 W _ZNSt20_Rb_tree_key_compareISt4lessIfEEC2Ev
000000000005e080 W _ZNSt20_Rb_tree_key_compareISt4lessIiEEC1Ev
000000000005e080 W _ZNSt20_Rb_tree_key_compareISt4lessIiEEC2Ev
0000000000037122 W _ZNSt20_Rb_tree_key_compareISt4lessIlEEC1Ev
0000000000037122 W _ZNSt20_Rb_tree_key_compareISt4lessIlEEC2Ev
0000000000051b8e W _ZNSt20__copy_move_backwardILb0ELb0ESt26random_access_iterator_tagE13__copy_move_bIPNSt7__cxx1112basic_stringIcSt11char_traitsIcESaIcEEES9_EET0_T_SB_SA_
00000000000be9ad W _ZNSt20__uninitialized_copyILb0EE13__uninit_copyIN9__gnu_cxx17__normal_iteratorIPK19ServerConfigurationSt6vectorIS4_SaIS4_EEEEPS4_EET0_T_SD_SC_
000000000005ef03 W _ZNSt20__uninitialized_copyILb0EE13__uninit_copyIN9__gnu_cxx17__normal_iteratorIPK5RouteSt6vectorIS4_SaIS4_EEEEPS4_EET0_T_SD_SC_
0000000000044329 W _ZNSt20__uninitialized_copyILb0EE13__uninit_copyIN9__gnu_cxx17__normal_iteratorIPKNSt7__cxx1112basic_stringIcSt11char_traitsIcESaIcEEESt6vectorIS9_SaIS9_EEEEPS9_EET0_T_SI_SH_
00000000000bc50f W _ZNSt20__uninitialized_copyILb0EE13__uninit_copyIP19ServerConfigurationS3_EET0_T_S5_S4_
000000000005e72f W _ZNSt20__uninitialized_copyILb0EE13__uninit_copyIP5RouteS3_EET0_T_S5_S4_
000000000003ae3c W _ZNSt20__uninitialized_copyILb0EE13__uninit_copyIP6ServerS3_EET0_T_S5_S4_
0000000000044291 W _ZNSt20__uninitialized_copyILb0EE13__uninit_copyIPNSt7__cxx1112basic_stringIcSt11char_traitsIcESaIcEEES8_EET0_T_SA_S9_
000000000003b2d2 W _ZNSt20__uninitialized_copyILb1EE13__uninit_copyIPiS2_EET0_T_S4_S3_
00000000000cd392 W _ZNSt22__uninitialized_fill_nILb1EE15__uninit_fill_nIPimiEET_S3_T0_RKT1_
000000000004a340 W _ZNSt23_Rb_tree_const_iteratorISt4pairIKNSt7__cxx1112basic_stringIcSt11char_traitsIcESaIcEEES6_EEC1EPKSt18_Rb_tree_node_base
0000000000027f88 W _ZNSt23_Rb_tree_const_iteratorISt4pairIKNSt7__cxx1112basic_stringIcSt11char_traitsIcESaIcEEES6_EEC1ERKSt17_Rb_tree_iteratorIS8_E
000000000004a340 W _ZNSt23_Rb_tree_const_iteratorISt4pairIKNSt7__cxx1112basic_stringIcSt11char_traitsIcESaIcEEES6_EEC2EPKSt18_Rb_tree_node_base
0000000000027f88 W _ZNSt23_Rb_tree_const_iteratorISt4pairIKNSt7__cxx1112basic_stringIcSt11char_traitsIcESaIcEEES6_EEC2ERKSt17_Rb_tree_iteratorIS8_E
00000000000b4a00 W _ZNSt23_Rb_tree_const_iteratorISt4pairIKNSt7__cxx1112basic_stringIcSt11char_traitsIcESaIcEEES6_EEppEi
000000000004a3d6 W _ZNSt23_Rb_tree_const_iteratorISt4pairIKfNSt7__cxx1112basic_stringIcSt11char_traitsIcESaIcEEEEEC1ERKSt17_Rb_tree_iteratorIS8_E
000000000004a3d6 W _ZNSt23_Rb_tree_const_iteratorISt4pairIKfNSt7__cxx1112basic_stringIcSt11char_traitsIcESaIcEEEEEC2ERKSt17_Rb_tree_iteratorIS8_E
00000000000bb746 W _ZNSt23_Rb_tree_const_iteratorISt4pairIKi5RouteEEC1ERKSt17_Rb_tree_iteratorIS3_E
00000000000bb746 W _ZNSt23_Rb_tree_const_iteratorISt4pairIKi5RouteEEC2ERKSt17_Rb_tree_iteratorIS3_E
0000000000053fc6 W _ZNSt23_Rb_tree_const_iteratorISt4pairIKiNSt7__cxx1112basic_stringIcSt11char_traitsIcESaIcEEEEEC1EPKSt18_Rb_tree_node_base
000000000005db1c W _ZNSt23_Rb_tree_const_iteratorISt4pairIKiNSt7__cxx1112basic_stringIcSt11char_traitsIcESaIcEEEEEC1ERKSt17_Rb_tree_iteratorIS8_E
0000000000053fc6 W _ZNSt23_Rb_tree_const_iteratorISt4pairIKiNSt7__cxx1112basic_stringIcSt11char_traitsIcESaIcEEEEEC2EPKSt18_Rb_tree_node_base
000000000005db1c W _ZNSt23_Rb_tree_const_iteratorISt4pairIKiNSt7__cxx1112basic_stringIcSt11char_traitsIcESaIcEEEEEC2ERKSt17_Rb_tree_iteratorIS8_E
00000000000b98ea W _ZNSt23_Rb_tree_const_iteratorISt4pairIKlNSt7__cxx1112basic_stringIcSt11char_traitsIcESaIcEEEEEC1ERKSt17_Rb_tree_iteratorIS8_E
00000000000b98ea W _ZNSt23_Rb_tree_const_iteratorISt4pairIKlNSt7__cxx1112basic_stringIcSt11char_traitsIcESaIcEEEEEC2ERKSt17_Rb_tree_iteratorIS8_E
00000000000bd204 W _ZNSt23_Rb_tree_const_iteratorISt4pairIKlNSt7__cxx1112basic_stringIcSt11char_traitsIcESaIcEEEEEppEi
00000000000353a2 W _ZNSt23_Rb_tree_const_iteratorISt4pairIKlP6ServerEEC1ERKSt17_Rb_tree_iteratorIS4_E
00000000000353a2 W _ZNSt23_Rb_tree_const_iteratorISt4pairIKlP6ServerEEC2ERKSt17_Rb_tree_iteratorIS4_E
0000000000038196 W _ZNSt23_Rb_tree_const_iteratorISt4pairIKlP6ServerEEppEi
00000000000365fa W _ZNSt23_Rb_tree_const_iteratorISt4pairIKllEEC1ERKSt17_Rb_tree_iteratorIS2_E
00000000000365fa W _ZNSt23_Rb_tree_const_iteratorISt4pairIKllEEC2ERKSt17_Rb_tree_iteratorIS2_E
0000000000038ab4 W _ZNSt23_Rb_tree_const_iteratorISt4pairIKllEEppEi
00000000000baaf8 W _ZNSt23_Rb_tree_const_iteratorISt4pairIKlmEEC1ERKSt17_Rb_tree_iteratorIS2_E
00000000000baaf8 W _ZNSt23_Rb_tree_const_iteratorISt4pairIKlmEEC2ERKSt17_Rb_tree_iteratorIS2_E
00000000000bde70 W _ZNSt23_Rb_tree_const_iteratorISt4pairIKlmEEppEi
00000000000276f2 W _ZNSt3mapINSt7__cxx1112basic_stringIcSt11char_traitsIcESaIcEEES5_St4lessIS5_ESaISt4pairIKS5_S5_EEE11lower_boundERS9_
0000000000027228 W _ZNSt3mapINSt7__cxx1112basic_stringIcSt11char_traitsIcESaIcEEES5_St4lessIS5_ESaISt4pairIKS5_S5_EEE3endEv
0000000000048ddc W _ZNSt3mapINSt7__cxx1112basic_stringIcSt11char_traitsIcESaIcEEES5_St4lessIS5_ESaISt4pairIKS5_S5_EEE4findERS9_
000000000002720e W _ZNSt3mapINSt7__cxx1112basic_stringIcSt11char_traitsIcESaIcEEES5_St4lessIS5_ESaISt4pairIKS5_S5_EEE5beginEv
000000000002786e W _ZNSt3mapINSt7__cxx1112basic_stringIcSt11char_traitsIcESaIcEEES5_St4lessIS5_ESaISt4pairIKS5_S5_EEE6insertESt17_Rb_tree_iteratorISA_ERKSA_
0000000000026d12 W _ZNSt3mapINSt7__cxx1112basic_stringIcSt11char_traitsIcESaIcEEES5_St4lessIS5_ESaISt4pairIKS5_S5_EEEC1ERKSC_
0000000000026c7e W _ZNSt3mapINSt7__cxx1112basic_stringIcSt11char_traitsIcESaIcEEES5_St4lessIS5_ESaISt4pairIKS5_S5_EEEC1Ev
0000000000026d12 W _ZNSt3mapINSt7__cxx1112basic_stringIcSt11char_traitsIcESaIcEEES5_St4lessIS5_ESaISt4pairIKS5_S5_EEEC2ERKSC_
0000000000026c7e W _ZNSt3mapINSt7__cxx1112basic_stringIcSt11char_traitsIcESaIcEEES5_St4lessIS5_ESaISt4pairIKS5_S5_EEEC2Ev
0000000000026b54 W _ZNSt3mapINSt7__cxx1112basic_stringIcSt11char_traitsIcESaIcEEES5_St4lessIS5_ESaISt4pairIKS5_S5_EEED1Ev
0000000000026b54 W _ZNSt3mapINSt7__cxx1112basic_stringIcSt11char_traitsIcESaIcEEES5_St4lessIS5_ESaISt4pairIKS5_S5_EEED2Ev
00000000000b4418 W _ZNSt3mapINSt7__cxx1112basic_stringIcSt11char_traitsIcESaIcEEES5_St4lessIS5_ESaISt4pairIKS5_S5_EEEaSERKSC_
0000000000026d86 W _ZNSt3mapINSt7__cxx1112basic_stringIcSt11char_traitsIcESaIcEEES5_St4lessIS5_ESaISt4pairIKS5_S5_EEEixERS9_
0000000000049c60 W _ZNSt3mapIfNSt7__cxx1112basic_stringIcSt11char_traitsIcESaIcEEESt4lessIfESaISt4pairIKfS5_EEE11lower_boundERS9_
0000000000048894 W _ZNSt3mapIfNSt7__cxx1112basic_stringIcSt11char_traitsIcESaIcEEESt4lessIfESaISt4pairIKfS5_EEE3endEv
000000000004887a W _ZNSt3mapIfNSt7__cxx1112basic_stringIcSt11char_traitsIcESaIcEEESt4lessIfESaISt4pairIKfS5_EEE5beginEv
0000000000049e8c W _ZNSt3mapIfNSt7__cxx1112basic_stringIcSt11char_traitsIcESaIcEEESt4lessIfESaISt4pairIKfS5_EEE6insertESt17_Rb_tree_iteratorISA_ERKSA_
00000000000b49c0 W _ZNSt3mapIfNSt7__cxx1112basic_stringIcSt11char_traitsIcESaIcEEESt4lessIfESaISt4pairIKfS5_EEEC1ERKSC_
00000000000487e6 W _ZNSt3mapIfNSt7__cxx1112basic_stringIcSt11char_traitsIcESaIcEEESt4lessIfESaISt4pairIKfS5_EEEC1Ev
00000000000b49c0 W _ZNSt3mapIfNSt7__cxx1112basic_stringIcSt11char_traitsIcESaIcEEESt4lessIfESaISt4pairIKfS5_EEEC2ERKSC_
00000000000487e6 W _ZNSt3mapIfNSt7__cxx1112basic_stringIcSt11char_traitsIcESaIcEEESt4lessIfESaISt4pairIKfS5_EEEC2Ev
00000000000487ca W _ZNSt3mapIfNSt7__cxx1112basic_stringIcSt11char_traitsIcESaIcEEESt4lessIfESaISt4pairIKfS5_EEED1Ev
00000000000487ca W _ZNSt3mapIfNSt7__cxx1112basic_stringIcSt11char_traitsIcESaIcEEESt4lessIfESaISt4pairIKfS5_EEED2Ev
0000000000048e22 W _ZNSt3mapIfNSt7__cxx1112basic_stringIcSt11char_traitsIcESaIcEEESt4lessIfESaISt4pairIKfS5_EEEixERS9_
00000000000b81ee W _ZNSt3mapIi5RouteSt4lessIiESaISt4pairIKiS0_EEE11lower_boundERS4_
00000000000b59ee W _ZNSt3mapIi5RouteSt4lessIiESaISt4pairIKiS0_EEE3endEv
00000000000b59c8 W _ZNSt3mapIi5RouteSt4lessIiESaISt4pairIKiS0_EEE4findERS4_
00000000000b8316 W _ZNSt3mapIi5RouteSt4lessIiESaISt4pairIKiS0_EEE6insertESt17_Rb_tree_iteratorIS5_ERKS5_
00000000000b5c2c W _ZNSt3mapIi5RouteSt4lessIiESaISt4pairIKiS0_EEE6rbeginEv
00000000000b53d8 W _ZNSt3mapIi5RouteSt4lessIiESaISt4pairIKiS0_EEEC1Ev
00000000000b53d8 W _ZNSt3mapIi5RouteSt4lessIiESaISt4pairIKiS0_EEEC2Ev
00000000000b3be6 W _ZNSt3mapIi5RouteSt4lessIiESaISt4pairIKiS0_EEED1Ev
00000000000b3be6 W _ZNSt3mapIi5RouteSt4lessIiESaISt4pairIKiS0_EEED2Ev
00000000000b54c2 W _ZNSt3mapIi5RouteSt4lessIiESaISt4pairIKiS0_EEEixERS4_
000000000005c582 W _ZNSt3mapIiNSt7__cxx1112basic_stringIcSt11char_traitsIcESaIcEEESt4lessIiESaISt4pairIKiS5_EEE11lower_boundERS9_
000000000005b126 W _ZNSt3mapIiNSt7__cxx1112basic_stringIcSt11char_traitsIcESaIcEEESt4lessIiESaISt4pairIKiS5_EEE3endEv
000000000005b10c W _ZNSt3mapIiNSt7__cxx1112basic_stringIcSt11char_traitsIcESaIcEEESt4lessIiESaISt4pairIKiS5_EEE5beginEv
000000000005c712 W _ZNSt3mapIiNSt7__cxx1112basic_stringIcSt11char_traitsIcESaIcEEESt4lessIiESaISt4pairIKiS5_EEE6insertESt17_Rb_tree_iteratorISA_ERKSA_
000000000005a6c6 W _ZNSt3mapIiNSt7__cxx1112basic_stringIcSt11char_traitsIcESaIcEEESt4lessIiESaISt4pairIKiS5_EEEC1Ev
000000000005a6c6 W _ZNSt3mapIiNSt7__cxx1112basic_stringIcSt11char_traitsIcESaIcEEESt4lessIiESaISt4pairIKiS5_EEEC2Ev
000000000005a6aa W _ZNSt3mapIiNSt7__cxx1112basic_stringIcSt11char_traitsIcESaIcEEESt4lessIiESaISt4pairIKiS5_EEED1Ev
000000000005a6aa W _ZNSt3mapIiNSt7__cxx1112basic_stringIcSt11char_traitsIcESaIcEEESt4lessIiESaISt4pairIKiS5_EEED2Ev
000000000005a826 W _ZNSt3mapIiNSt7__cxx1112basic_stringIcSt11char_traitsIcESaIcEEESt4lessIiESaISt4pairIKiS5_EEEaSERKSC_
000000000005ac98 W _ZNSt3mapIiNSt7__cxx1112basic_stringIcSt11char_traitsIcESaIcEEESt4lessIiESaISt4pairIKiS5_EEEixERS9_
00000000000b6a6e W _ZNSt3mapIlNSt7__cxx1112basic_stringIcSt11char_traitsIcESaIcEEESt4lessIlESaISt4pairIKlS5_EEE11lower_boundERS9_
00000000000b6a94 W _ZNSt3mapIlNSt7__cxx1112basic_stringIcSt11char_traitsIcESaIcEEESt4lessIlESaISt4pairIKlS5_EEE3endEv
00000000000b4442 W _ZNSt3mapIlNSt7__cxx1112basic_stringIcSt11char_traitsIcESaIcEEESt4lessIlESaISt4pairIKlS5_EEE5clearEv
00000000000b48f2 W _ZNSt3mapIlNSt7__cxx1112basic_stringIcSt11char_traitsIcESaIcEEESt4lessIlESaISt4pairIKlS5_EEE5eraseERS9_
00000000000b6bf4 W _ZNSt3mapIlNSt7__cxx1112basic_stringIcSt11char_traitsIcESaIcEEESt4lessIlESaISt4pairIKlS5_EEE6insertESt17_Rb_tree_iteratorISA_ERKSA_
00000000000b3cce W _ZNSt3mapIlNSt7__cxx1112basic_stringIcSt11char_traitsIcESaIcEEESt4lessIlESaISt4pairIKlS5_EEEC1Ev
00000000000b3cce W _ZNSt3mapIlNSt7__cxx1112basic_stringIcSt11char_traitsIcESaIcEEESt4lessIlESaISt4pairIKlS5_EEEC2Ev
00000000000b38b0 W _ZNSt3mapIlNSt7__cxx1112basic_stringIcSt11char_traitsIcESaIcEEESt4lessIlESaISt4pairIKlS5_EEED1Ev
00000000000b38b0 W _ZNSt3mapIlNSt7__cxx1112basic_stringIcSt11char_traitsIcESaIcEEESt4lessIlESaISt4pairIKlS5_EEED2Ev
00000000000b3df6 W _ZNSt3mapIlNSt7__cxx1112basic_stringIcSt11char_traitsIcESaIcEEESt4lessIlESaISt4pairIKlS5_EEEaSERKSC_
00000000000b447e W _ZNSt3mapIlNSt7__cxx1112basic_stringIcSt11char_traitsIcESaIcEEESt4lessIlESaISt4pairIKlS5_EEEixERS9_
000000000003250e W _ZNSt3mapIlP6ServerSt4lessIlESaISt4pairIKlS1_EEE11lower_boundERS5_
0000000000030a76 W _ZNSt3mapIlP6ServerSt4lessIlESaISt4pairIKlS1_EEE3endEv
0000000000030a5c W _ZNSt3mapIlP6ServerSt4lessIlESaISt4pairIKlS1_EEE5beginEv
000000000003132c W _ZNSt3mapIlP6ServerSt4lessIlESaISt4pairIKlS1_EEE5clearEv
0000000000030a36 W _ZNSt3mapIlP6ServerSt4lessIlESaISt4pairIKlS1_EEE5eraseERS5_
000000000002fcce W _ZNSt3mapIlP6ServerSt4lessIlESaISt4pairIKlS1_EEE6insertERKS6_
0000000000032724 W _ZNSt3mapIlP6ServerSt4lessIlESaISt4pairIKlS1_EEE6insertESt17_Rb_tree_iteratorIS6_ERKS6_
000000000002f2f0 W _ZNSt3mapIlP6ServerSt4lessIlESaISt4pairIKlS1_EEEC1Ev
000000000002f2f0 W _ZNSt3mapIlP6ServerSt4lessIlESaISt4pairIKlS1_EEEC2Ev
000000000002f1ec W _ZNSt3mapIlP6ServerSt4lessIlESaISt4pairIKlS1_EEED1Ev
000000000002f1ec W _ZNSt3mapIlP6ServerSt4lessIlESaISt4pairIKlS1_EEED2Ev
000000000003061c W _ZNSt3mapIlP6ServerSt4lessIlESaISt4pairIKlS1_EEEixERS5_
0000000000033cc6 W _ZNSt3mapIllSt4lessIlESaISt4pairIKllEEE11lower_boundERS3_
0000000000030e02 W _ZNSt3mapIllSt4lessIlESaISt4pairIKllEEE3endEv
0000000000030cf2 W _ZNSt3mapIllSt4lessIlESaISt4pairIKllEEE4findERS3_
0000000000030eaa W _ZNSt3mapIllSt4lessIlESaISt4pairIKllEEE5eraseERS3_
0000000000030e84 W _ZNSt3mapIllSt4lessIlESaISt4pairIKllEEE5eraseESt17_Rb_tree_iteratorIS4_E
0000000000033e08 W _ZNSt3mapIllSt4lessIlESaISt4pairIKllEEE6insertESt17_Rb_tree_iteratorIS4_ERKS4_
000000000002f450 W _ZNSt3mapIllSt4lessIlESaISt4pairIKllEEEC1Ev
000000000002f450 W _ZNSt3mapIllSt4lessIlESaISt4pairIKllEEEC2Ev
000000000002f208 W _ZNSt3mapIllSt4lessIlESaISt4pairIKllEEED1Ev
000000000002f208 W _ZNSt3mapIllSt4lessIlESaISt4pairIKllEEED2Ev
0000000000030f38 W _ZNSt3mapIllSt4lessIlESaISt4pairIKllEEEixERS3_
00000000000b7b9c W _ZNSt3mapIlmSt4lessIlESaISt4pairIKlmEEE11lower_boundERS3_
00000000000b493e W _ZNSt3mapIlmSt4lessIlESaISt4pairIKlmEEE3endEv
00000000000b4918 W _ZNSt3mapIlmSt4lessIlESaISt4pairIKlmEEE4findERS3_
00000000000b5270 W _ZNSt3mapIlmSt4lessIlESaISt4pairIKlmEEE5eraseERS3_
00000000000b7cde W _ZNSt3mapIlmSt4lessIlESaISt4pairIKlmEEE6insertESt17_Rb_tree_iteratorIS4_ERKS4_
00000000000b3d62 W _ZNSt3mapIlmSt4lessIlESaISt4pairIKlmEEEC1Ev
00000000000b3d62 W _ZNSt3mapIlmSt4lessIlESaISt4pairIKlmEEEC2Ev
00000000000b38cc W _ZNSt3mapIlmSt4lessIlESaISt4pairIKlmEEED1Ev
00000000000b38cc W _ZNSt3mapIlmSt4lessIlESaISt4pairIKlmEEED2Ev
00000000000b4e7c W _ZNSt3mapIlmSt4lessIlESaISt4pairIKlmEEEixERS3_
000000000002ab70 W _ZNSt4pairIKNSt7__cxx1112basic_stringIcSt11char_traitsIcESaIcEEES5_EC1ERKS7_
000000000002780a W _ZNSt4pairIKNSt7__cxx1112basic_stringIcSt11char_traitsIcESaIcEEES5_EC1ERS6_S8_
000000000002ab70 W _ZNSt4pairIKNSt7__cxx1112basic_stringIcSt11char_traitsIcESaIcEEES5_EC2ERKS7_
000000000002780a W _ZNSt4pairIKNSt7__cxx1112basic_stringIcSt11char_traitsIcESaIcEEES5_EC2ERS6_S8_
0000000000026d38 W _ZNSt4pairIKNSt7__cxx1112basic_stringIcSt11char_traitsIcESaIcEEES5_ED1Ev
0000000000026d38 W _ZNSt4pairIKNSt7__cxx1112basic_stringIcSt11char_traitsIcESaIcEEES5_ED2Ev
000000000004c904 W _ZNSt4pairIKfNSt7__cxx1112basic_stringIcSt11char_traitsIcESaIcEEEEC1ERKS7_
0000000000049de8 W _ZNSt4pairIKfNSt7__cxx1112basic_stringIcSt11char_traitsIcESaIcEEEEC1ERS0_RKS6_
000000000004c904 W _ZNSt4pairIKfNSt7__cxx1112basic_stringIcSt11char_traitsIcESaIcEEEEC2ERKS7_
0000000000049de8 W _ZNSt4pairIKfNSt7__cxx1112basic_stringIcSt11char_traitsIcESaIcEEEEC2ERS0_RKS6_
0000000000048e02 W _ZNSt4pairIKfNSt7__cxx1112basic_stringIcSt11char_traitsIcESaIcEEEED1Ev
0000000000048e02 W _ZNSt4pairIKfNSt7__cxx1112basic_stringIcSt11char_traitsIcESaIcEEEED2Ev
00000000000c5080 W _ZNSt4pairIKi5RouteEC1ERKS2_
00000000000b8274 W _ZNSt4pairIKi5RouteEC1ERS0_RKS1_
00000000000c5080 W _ZNSt4pairIKi5RouteEC2ERKS2_
00000000000b8274 W _ZNSt4pairIKi5RouteEC2ERS0_RKS1_
00000000000b54a2 W _ZNSt4pairIKi5RouteED1Ev
00000000000b54a2 W _ZNSt4pairIKi5RouteED2Ev
0000000000061322 W _ZNSt4pairIKiNSt7__cxx1112basic_stringIcSt11char_traitsIcESaIcEEEEC1ERKS7_
000000000005c670 W _ZNSt4pairIKiNSt7__cxx1112basic_stringIcSt11char_traitsIcESaIcEEEEC1ERS0_RKS6_
0000000000061322 W _ZNSt4pairIKiNSt7__cxx1112basic_stringIcSt11char_traitsIcESaIcEEEEC2ERKS7_
000000000005c670 W _ZNSt4pairIKiNSt7__cxx1112basic_stringIcSt11char_traitsIcESaIcEEEEC2ERS0_RKS6_
000000000005ac78 W _ZNSt4pairIKiNSt7__cxx1112basic_stringIcSt11char_traitsIcESaIcEEEED1Ev
000000000005ac78 W _ZNSt4pairIKiNSt7__cxx1112basic_stringIcSt11char_traitsIcESaIcEEEED2Ev
00000000000c4aea W _ZNSt4pairIKlNSt7__cxx1112basic_stringIcSt11char_traitsIcESaIcEEEEC1ERKS7_
00000000000b6b76 W _ZNSt4pairIKlNSt7__cxx1112basic_stringIcSt11char_traitsIcESaIcEEEEC1ERS0_RKS6_
00000000000c4aea W _ZNSt4pairIKlNSt7__cxx1112basic_stringIcSt11char_traitsIcESaIcEEEEC2ERKS7_
00000000000b6b76 W _ZNSt4pairIKlNSt7__cxx1112basic_stringIcSt11char_traitsIcESaIcEEEEC2ERS0_RKS6_
00000000000b445e W _ZNSt4pairIKlNSt7__cxx1112basic_stringIcSt11char_traitsIcESaIcEEEED1Ev
00000000000b445e W _ZNSt4pairIKlNSt7__cxx1112basic_stringIcSt11char_traitsIcESaIcEEEED2Ev
0000000000032668 W _ZNSt4pairIKlP6ServerEC1ERS0_RKS2_
000000000002fc10 W _ZNSt4pairIKlP6ServerEC1IlS2_EERKS_IT_T0_E
0000000000032668 W _ZNSt4pairIKlP6ServerEC2ERS0_RKS2_
000000000002fc10 W _ZNSt4pairIKlP6ServerEC2IlS2_EERKS_IT_T0_E
0000000000033d4c W _ZNSt4pairIKllEC1ERS0_S2_
0000000000033d4c W _ZNSt4pairIKllEC2ERS0_S2_
00000000000b7c22 W _ZNSt4pairIKlmEC1ERS0_RKm
00000000000b7c22 W _ZNSt4pairIKlmEC2ERS0_RKm
000000000002a060 W _ZNSt4pairIPSt18_Rb_tree_node_baseS1_EC1ERKS1_S4_
000000000002a060 W _ZNSt4pairIPSt18_Rb_tree_node_baseS1_EC2ERKS1_S4_
00000000000bcf3a W _ZNSt4pairISt17_Rb_tree_iteratorIS_IKlNSt7__cxx1112basic_stringIcSt11char_traitsIcESaIcEEEEES9_EC1ERKS9_SC_
00000000000bcf3a W _ZNSt4pairISt17_Rb_tree_iteratorIS_IKlNSt7__cxx1112basic_stringIcSt11char_traitsIcESaIcEEEEES9_EC2ERKS9_SC_
000000000003800a W _ZNSt4pairISt17_Rb_tree_iteratorIS_IKlP6ServerEES5_EC1ERKS5_S8_
000000000003800a W _ZNSt4pairISt17_Rb_tree_iteratorIS_IKlP6ServerEES5_EC2ERKS5_S8_
000000000003522e W _ZNSt4pairISt17_Rb_tree_iteratorIS_IKlP6ServerEEbEC1ERKS5_RKb
000000000003522e W _ZNSt4pairISt17_Rb_tree_iteratorIS_IKlP6ServerEEbEC2ERKS5_RKb
00000000000387ac W _ZNSt4pairISt17_Rb_tree_iteratorIS_IKllEES3_EC1ERKS3_S6_
00000000000387ac W _ZNSt4pairISt17_Rb_tree_iteratorIS_IKllEES3_EC2ERKS3_S6_
00000000000bdb68 W _ZNSt4pairISt17_Rb_tree_iteratorIS_IKlmEES3_EC1ERKS3_S6_
00000000000bdb68 W _ZNSt4pairISt17_Rb_tree_iteratorIS_IKlmEES3_EC2ERKS3_S6_
0000000000031e94 W _ZNSt4pairIlP6ServerEC1ERKlRKS1_
0000000000031e94 W _ZNSt4pairIlP6ServerEC2ERKlRKS1_
00000000000b7568 W _ZNSt6vectorI19ServerConfigurationSaIS0_EE17_M_realloc_insertEN9__gnu_cxx17__normal_iteratorIPS0_S2_EERKS0_
00000000000b66a8 W _ZNSt6vectorI19ServerConfigurationSaIS0_EE20_M_allocate_and_copyIN9__gnu_cxx17__normal_iteratorIPKS0_S2_EEEEPS0_mT_SA_
000000000002fe06 W _ZNSt6vectorI19ServerConfigurationSaIS0_EE3endEv
000000000002fcf4 W _ZNSt6vectorI19ServerConfigurationSaIS0_EE5beginEv
00000000000b4bfa W _ZNSt6vectorI19ServerConfigurationSaIS0_EE9push_backERKS0_
00000000000b3c02 W _ZNSt6vectorI19ServerConfigurationSaIS0_EEC1Ev
00000000000b3c02 W _ZNSt6vectorI19ServerConfigurationSaIS0_EEC2Ev
00000000000b3c1e W _ZNSt6vectorI19ServerConfigurationSaIS0_EED1Ev
00000000000b3c1e W _ZNSt6vectorI19ServerConfigurationSaIS0_EED2Ev
00000000000b3fb4 W _ZNSt6vectorI19ServerConfigurationSaIS0_EEaSERKS2_
000000000003138e W _ZNSt6vectorI19ServerConfigurationSaIS0_EEixEm
000000000005caf8 W _ZNSt6vectorI5RouteSaIS0_EE17_M_realloc_insertEN9__gnu_cxx17__normal_iteratorIPS0_S2_EERKS0_
000000000005c192 W _ZNSt6vectorI5RouteSaIS0_EE20_M_allocate_and_copyIN9__gnu_cxx17__normal_iteratorIPKS0_S2_EEEEPS0_mT_SA_
000000000005c3c4 W _ZNSt6vectorI5RouteSaIS0_EE3endEv
000000000005c266 W _ZNSt6vectorI5RouteSaIS0_EE5beginEv
000000000005b42c W _ZNSt6vectorI5RouteSaIS0_EE9push_backERKS0_
00000000000b52d2 W _ZNSt6vectorI5RouteSaIS0_EEC1ERKS2_
000000000005a75a W _ZNSt6vectorI5RouteSaIS0_EEC1Ev
00000000000b52d2 W _ZNSt6vectorI5RouteSaIS0_EEC2ERKS2_
000000000005a75a W _ZNSt6vectorI5RouteSaIS0_EEC2Ev
000000000005a776 W _ZNSt6vectorI5RouteSaIS0_EED1Ev
000000000005a776 W _ZNSt6vectorI5RouteSaIS0_EED2Ev
000000000005a850 W _ZNSt6vectorI5RouteSaIS0_EEaSERKS2_
000000000003401e W _ZNSt6vectorI6ServerSaIS0_EE15_M_erase_at_endEPS0_
000000000003186a W _ZNSt6vectorI6ServerSaIS0_EE17_M_realloc_insertEN9__gnu_cxx17__normal_iteratorIPS0_S2_EERKS0_
000000000002f766 W _ZNSt6vectorI6ServerSaIS0_EE3endEv
000000000002f654 W _ZNSt6vectorI6ServerSaIS0_EE5beginEv
00000000000313de W _ZNSt6vectorI6ServerSaIS0_EE5clearEv
000000000002f4e4 W _ZNSt6vectorI6ServerSaIS0_EE9push_backERKS0_
000000000002f224 W _ZNSt6vectorI6ServerSaIS0_EEC1Ev
000000000002f224 W _ZNSt6vectorI6ServerSaIS0_EEC2Ev
000000000002f240 W _ZNSt6vectorI6ServerSaIS0_EED1Ev
000000000002f240 W _ZNSt6vectorI6ServerSaIS0_EED2Ev
0000000000043332 W _ZNSt6vectorINSt7__cxx1112basic_stringIcSt11char_traitsIcESaIcEEESaIS5_EE17_M_realloc_insertEN9__gnu_cxx17__normal_iteratorIPS5_S7_EERKS5_
00000000000430fe W _ZNSt6vectorINSt7__cxx1112basic_stringIcSt11char_traitsIcESaIcEEESaIS5_EE20_M_allocate_and_copyIN9__gnu_cxx17__normal_iteratorIPKS5_S7_EEEEPS5_mT_SF_
0000000000041f54 W _ZNSt6vectorINSt7__cxx1112basic_stringIcSt11char_traitsIcESaIcEEESaIS5_EE3endEv
0000000000041e42 W _ZNSt6vectorINSt7__cxx1112basic_stringIcSt11char_traitsIcESaIcEEESaIS5_EE5beginEv
000000000004ea92 W _ZNSt6vectorINSt7__cxx1112basic_stringIcSt11char_traitsIcESaIcEEESaIS5_EE5eraseEN9__gnu_cxx17__normal_iteratorIPS5_S7_EE
000000000004eaf0 W _ZNSt6vectorINSt7__cxx1112basic_stringIcSt11char_traitsIcESaIcEEESaIS5_EE8_M_eraseEN9__gnu_cxx17__normal_iteratorIPS5_S7_EE
0000000000042aba W _ZNSt6vectorINSt7__cxx1112basic_stringIcSt11char_traitsIcESaIcEEESaIS5_EE9push_backERKS5_
0000000000056e10 W _ZNSt6vectorINSt7__cxx1112basic_stringIcSt11char_traitsIcESaIcEEESaIS5_EEC1ERKS7_
0000000000042580 W _ZNSt6vectorINSt7__cxx1112basic_stringIcSt11char_traitsIcESaIcEEESaIS5_EEC1Ev
0000000000056e10 W _ZNSt6vectorINSt7__cxx1112basic_stringIcSt11char_traitsIcESaIcEEESaIS5_EEC2ERKS7_
0000000000042580 W _ZNSt6vectorINSt7__cxx1112basic_stringIcSt11char_traitsIcESaIcEEESaIS5_EEC2Ev
000000000004259c W _ZNSt6vectorINSt7__cxx1112basic_stringIcSt11char_traitsIcESaIcEEESaIS5_EED1Ev
000000000004259c W _ZNSt6vectorINSt7__cxx1112basic_stringIcSt11char_traitsIcESaIcEEESaIS5_EED2Ev
000000000004264c W _ZNSt6vectorINSt7__cxx1112basic_stringIcSt11char_traitsIcESaIcEEESaIS5_EEaSERKS7_
0000000000042a74 W _ZNSt6vectorINSt7__cxx1112basic_stringIcSt11char_traitsIcESaIcEEESaIS5_EEixEm
0000000000033f8c W _ZNSt6vectorIiSaIiEE15_M_erase_at_endEPi
000000000003327a W _ZNSt6vectorIiSaIiEE17_M_realloc_insertEN9__gnu_cxx17__normal_iteratorIPiS1_EERKi
00000000000cce6c W _ZNSt6vectorIiSaIiEE18_M_fill_initializeEmRKi
00000000000cc8e0 W _ZNSt6vectorIiSaIiEE22_M_initialize_dispatchIiEEvT_S3_St11__true_type
000000000003029c W _ZNSt6vectorIiSaIiEE3endEv
000000000003018a W _ZNSt6vectorIiSaIiEE5beginEv
0000000000031348 W _ZNSt6vectorIiSaIiEE5clearEv
0000000000030a10 W _ZNSt6vectorIiSaIiEE5eraseEN9__gnu_cxx17__normal_iteratorIPiS1_EE
000000000003286a W _ZNSt6vectorIiSaIiEE8_M_eraseEN9__gnu_cxx17__normal_iteratorIPiS1_EE
0000000000030d18 W _ZNSt6vectorIiSaIiEE9push_backERKi
000000000002f384 W _ZNSt6vectorIiSaIiEEC1Ev
00000000000cc646 W _ZNSt6vectorIiSaIiEEC1IiEET_S3_RKS0_
000000000002f384 W _ZNSt6vectorIiSaIiEEC2Ev
00000000000cc646 W _ZNSt6vectorIiSaIiEEC2IiEET_S3_RKS0_
000000000002f3a0 W _ZNSt6vectorIiSaIiEED1Ev
000000000002f3a0 W _ZNSt6vectorIiSaIiEED2Ev
00000000000cc7b0 W _ZNSt6vectorIiSaIiEEixEm
                 U _ZNSt7__cxx1112basic_stringIcSt11char_traitsIcESaIcEE10_M_disposeEv@@GLIBCXX_3.4.21
                 U _ZNSt7__cxx1112basic_stringIcSt11char_traitsIcESaIcEE11_M_capacityEm@@GLIBCXX_3.4.21
                 U _ZNSt7__cxx1112basic_stringIcSt11char_traitsIcESaIcEE12_Alloc_hiderC1EPcRKS3_@@GLIBCXX_3.4.21
00000000000c6504 W _ZNSt7__cxx1112basic_stringIcSt11char_traitsIcESaIcEE12_Alloc_hiderD1Ev
00000000000c6504 W _ZNSt7__cxx1112basic_stringIcSt11char_traitsIcESaIcEE12_Alloc_hiderD2Ev
00000000000c6748 W _ZNSt7__cxx1112basic_stringIcSt11char_traitsIcESaIcEE12_M_constructISt19istreambuf_iteratorIcS2_EEEvT_S8_
00000000000c69bc W _ZNSt7__cxx1112basic_stringIcSt11char_traitsIcESaIcEE12_M_constructISt19istreambuf_iteratorIcS2_EEEvT_S8_St18input_iterator_tag
                 U _ZNSt7__cxx1112basic_stringIcSt11char_traitsIcESaIcEE13_M_local_dataEv@@GLIBCXX_3.4.21
                 U _ZNSt7__cxx1112basic_stringIcSt11char_traitsIcESaIcEE13_M_set_lengthEm@@GLIBCXX_3.4.21
00000000000c6882 W _ZNSt7__cxx1112basic_stringIcSt11char_traitsIcESaIcEE16_M_construct_auxISt19istreambuf_iteratorIcS2_EEEvT_S8_St12__false_type
                 U _ZNSt7__cxx1112basic_stringIcSt11char_traitsIcESaIcEE3endEv@@GLIBCXX_3.4.21
                 U _ZNSt7__cxx1112basic_stringIcSt11char_traitsIcESaIcEE4swapERS4_@@GLIBCXX_3.4.21
                 U _ZNSt7__cxx1112basic_stringIcSt11char_traitsIcESaIcEE5beginEv@@GLIBCXX_3.4.21
                 U _ZNSt7__cxx1112basic_stringIcSt11char_traitsIcESaIcEE5eraseEN9__gnu_cxx17__normal_iteratorIPcS4_EES8_@@GLIBCXX_3.4.21
                 U _ZNSt7__cxx1112basic_stringIcSt11char_traitsIcESaIcEE5eraseEmm@@GLIBCXX_3.4.21
                 U _ZNSt7__cxx1112basic_stringIcSt11char_traitsIcESaIcEE6appendEPKc@@GLIBCXX_3.4.21
                 U _ZNSt7__cxx1112basic_stringIcSt11char_traitsIcESaIcEE6appendEPKcm@@GLIBCXX_3.4.21
                 U _ZNSt7__cxx1112basic_stringIcSt11char_traitsIcESaIcEE6appendERKS4_@@GLIBCXX_3.4.21
                 U _ZNSt7__cxx1112basic_stringIcSt11char_traitsIcESaIcEE6appendEmc@@GLIBCXX_3.4.21
                 U _ZNSt7__cxx1112basic_stringIcSt11char_traitsIcESaIcEE6assignEPKc@@GLIBCXX_3.4.21
                 U _ZNSt7__cxx1112basic_stringIcSt11char_traitsIcESaIcEE6insertEN9__gnu_cxx17__normal_iteratorIPcS4_EEc@@GLIBCXX_3.4.21
                 U _ZNSt7__cxx1112basic_stringIcSt11char_traitsIcESaIcEE6insertEmRKS4_@@GLIBCXX_3.4.21
                 U _ZNSt7__cxx1112basic_stringIcSt11char_traitsIcESaIcEE7_M_dataEPc@@GLIBCXX_3.4.21
                 U _ZNSt7__cxx1112basic_stringIcSt11char_traitsIcESaIcEE7_S_copyEPcPKcm@@GLIBCXX_3.4.21
                 U _ZNSt7__cxx1112basic_stringIcSt11char_traitsIcESaIcEE7reserveEm@@GLIBCXX_3.4.21
                 U _ZNSt7__cxx1112basic_stringIcSt11char_traitsIcESaIcEE9_M_createERmm@@GLIBCXX_3.4.21
                 U _ZNSt7__cxx1112basic_stringIcSt11char_traitsIcESaIcEE9push_backEc@@GLIBCXX_3.4.21
                 U _ZNSt7__cxx1112basic_stringIcSt11char_traitsIcESaIcEEC1EPKcRKS3_@@GLIBCXX_3.4.21
                 U _ZNSt7__cxx1112basic_stringIcSt11char_traitsIcESaIcEEC1ERKS4_@@GLIBCXX_3.4.21
                 U _ZNSt7__cxx1112basic_stringIcSt11char_traitsIcESaIcEEC1Ev@@GLIBCXX_3.4.21
00000000000c66ac W _ZNSt7__cxx1112basic_stringIcSt11char_traitsIcESaIcEEC1ISt19istreambuf_iteratorIcS2_EEET_S8_RKS3_
00000000000c66ac W _ZNSt7__cxx1112basic_stringIcSt11char_traitsIcESaIcEEC2ISt19istreambuf_iteratorIcS2_EEET_S8_RKS3_
                 U _ZNSt7__cxx1112basic_stringIcSt11char_traitsIcESaIcEED1Ev@@GLIBCXX_3.4.21
                 U _ZNSt7__cxx1112basic_stringIcSt11char_traitsIcESaIcEEaSEPKc@@GLIBCXX_3.4.21
                 U _ZNSt7__cxx1112basic_stringIcSt11char_traitsIcESaIcEEaSERKS4_@@GLIBCXX_3.4.21
                 U _ZNSt7__cxx1112basic_stringIcSt11char_traitsIcESaIcEEixEm@@GLIBCXX_3.4.21
                 U _ZNSt7__cxx1112basic_stringIcSt11char_traitsIcESaIcEEpLEPKc@@GLIBCXX_3.4.21
                 U _ZNSt7__cxx1112basic_stringIcSt11char_traitsIcESaIcEEpLERKS4_@@GLIBCXX_3.4.21
                 U _ZNSt7__cxx1112basic_stringIcSt11char_traitsIcESaIcEEpLEc@@GLIBCXX_3.4.21
                 U _ZNSt7__cxx1118basic_stringstreamIcSt11char_traitsIcESaIcEEC1ESt13_Ios_Openmode@@GLIBCXX_3.4.21
                 U _ZNSt7__cxx1118basic_stringstreamIcSt11char_traitsIcESaIcEED1Ev@@GLIBCXX_3.4.21
                 U _ZNSt7__cxx1119basic_istringstreamIcSt11char_traitsIcESaIcEEC1ERKNS_12basic_stringIcS2_S3_EESt13_Ios_Openmode@@GLIBCXX_3.4.21
                 U _ZNSt7__cxx1119basic_istringstreamIcSt11char_traitsIcESaIcEED1Ev@@GLIBCXX_3.4.21
0000000000029966 W _ZNSt8_Rb_treeINSt7__cxx1112basic_stringIcSt11char_traitsIcESaIcEEESt4pairIKS5_S5_ESt10_Select1stIS8_ESt4lessIS5_ESaIS8_EE10_M_insert_INSE_11_Alloc_nodeEEESt17_Rb_tree_iteratorIS8_EPSt18_Rb_tree_node_baseSK_RKS8_RT_
0000000000028c8a W _ZNSt8_Rb_treeINSt7__cxx1112basic_stringIcSt11char_traitsIcESaIcEEESt4pairIKS5_S5_ESt10_Select1stIS8_ESt4lessIS5_ESaIS8_EE10_S_maximumEPSt18_Rb_tree_node_base
0000000000028c5e W _ZNSt8_Rb_treeINSt7__cxx1112basic_stringIcSt11char_traitsIcESaIcEEESt4pairIKS5_S5_ESt10_Select1stIS8_ESt4lessIS5_ESaIS8_EE10_S_minimumEPSt18_Rb_tree_node_base
0000000000028368 W _ZNSt8_Rb_treeINSt7__cxx1112basic_stringIcSt11char_traitsIcESaIcEEESt4pairIKS5_S5_ESt10_Select1stIS8_ESt4lessIS5_ESaIS8_EE11_Alloc_nodeC1ERSE_
0000000000028368 W _ZNSt8_Rb_treeINSt7__cxx1112basic_stringIcSt11char_traitsIcESaIcEEESt4pairIKS5_S5_ESt10_Select1stIS8_ESt4lessIS5_ESaIS8_EE11_Alloc_nodeC2ERSE_
000000000002a950 W _ZNSt8_Rb_treeINSt7__cxx1112basic_stringIcSt11char_traitsIcESaIcEEESt4pairIKS5_S5_ESt10_Select1stIS8_ESt4lessIS5_ESaIS8_EE11_M_get_nodeEv
0000000000028c4c W _ZNSt8_Rb_treeINSt7__cxx1112basic_stringIcSt11char_traitsIcESaIcEEESt4pairIKS5_S5_ESt10_Select1stIS8_ESt4lessIS5_ESaIS8_EE11_M_leftmostEv
00000000000282ee W _ZNSt8_Rb_treeINSt7__cxx1112basic_stringIcSt11char_traitsIcESaIcEEESt4pairIKS5_S5_ESt10_Select1stIS8_ESt4lessIS5_ESaIS8_EE11_M_put_nodeEPSt13_Rb_tree_nodeIS8_E
0000000000027f0a W _ZNSt8_Rb_treeINSt7__cxx1112basic_stringIcSt11char_traitsIcESaIcEEESt4pairIKS5_S5_ESt10_Select1stIS8_ESt4lessIS5_ESaIS8_EE11lower_boundERS7_
0000000000027d1c W _ZNSt8_Rb_treeINSt7__cxx1112basic_stringIcSt11char_traitsIcESaIcEEESt4pairIKS5_S5_ESt10_Select1stIS8_ESt4lessIS5_ESaIS8_EE12_M_drop_nodeEPSt13_Rb_tree_nodeIS8_E
0000000000028c78 W _ZNSt8_Rb_treeINSt7__cxx1112basic_stringIcSt11char_traitsIcESaIcEEESt4pairIKS5_S5_ESt10_Select1stIS8_ESt4lessIS5_ESaIS8_EE12_M_rightmostEv
0000000000029c94 W _ZNSt8_Rb_treeINSt7__cxx1112basic_stringIcSt11char_traitsIcESaIcEEESt4pairIKS5_S5_ESt10_Select1stIS8_ESt4lessIS5_ESaIS8_EE13_M_clone_nodeINSE_11_Alloc_nodeEEEPSt13_Rb_tree_nodeIS8_EPKSI_RT_
00000000000bedc8 W _ZNSt8_Rb_treeINSt7__cxx1112basic_stringIcSt11char_traitsIcESaIcEEESt4pairIKS5_S5_ESt10_Select1stIS8_ESt4lessIS5_ESaIS8_EE13_M_clone_nodeINSE_20_Reuse_or_alloc_nodeEEEPSt13_Rb_tree_nodeIS8_EPKSI_RT_
0000000000027d56 W _ZNSt8_Rb_treeINSt7__cxx1112basic_stringIcSt11char_traitsIcESaIcEEESt4pairIKS5_S5_ESt10_Select1stIS8_ESt4lessIS5_ESaIS8_EE13_Rb_tree_implISC_Lb0EEC1ERKSG_
0000000000027c62 W _ZNSt8_Rb_treeINSt7__cxx1112basic_stringIcSt11char_traitsIcESaIcEEESt4pairIKS5_S5_ESt10_Select1stIS8_ESt4lessIS5_ESaIS8_EE13_Rb_tree_implISC_Lb0EEC1Ev
0000000000027d56 W _ZNSt8_Rb_treeINSt7__cxx1112basic_stringIcSt11char_traitsIcESaIcEEESt4pairIKS5_S5_ESt10_Select1stIS8_ESt4lessIS5_ESaIS8_EE13_Rb_tree_implISC_Lb0EEC2ERKSG_
0000000000027c62 W _ZNSt8_Rb_treeINSt7__cxx1112basic_stringIcSt11char_traitsIcESaIcEEESt4pairIKS5_S5_ESt10_Select1stIS8_ESt4lessIS5_ESaIS8_EE13_Rb_tree_implISC_Lb0EEC2Ev
0000000000026c9a W _ZNSt8_Rb_treeINSt7__cxx1112basic_stringIcSt11char_traitsIcESaIcEEESt4pairIKS5_S5_ESt10_Select1stIS8_ESt4lessIS5_ESaIS8_EE13_Rb_tree_implISC_Lb0EED1Ev
0000000000026c9a W _ZNSt8_Rb_treeINSt7__cxx1112basic_stringIcSt11char_traitsIcESaIcEEESt4pairIKS5_S5_ESt10_Select1stIS8_ESt4lessIS5_ESaIS8_EE13_Rb_tree_implISC_Lb0EED2Ev
000000000002a904 W _ZNSt8_Rb_treeINSt7__cxx1112basic_stringIcSt11char_traitsIcESaIcEEESt4pairIKS5_S5_ESt10_Select1stIS8_ESt4lessIS5_ESaIS8_EE14_M_create_nodeERKS8_
00000000000284ee W _ZNSt8_Rb_treeINSt7__cxx1112basic_stringIcSt11char_traitsIcESaIcEEESt4pairIKS5_S5_ESt10_Select1stIS8_ESt4lessIS5_ESaIS8_EE14_M_lower_boundEPSt13_Rb_tree_nodeIS8_EPSt18_Rb_tree_node_baseRS7_
000000000002817e W _ZNSt8_Rb_treeINSt7__cxx1112basic_stringIcSt11char_traitsIcESaIcEEESt4pairIKS5_S5_ESt10_Select1stIS8_ESt4lessIS5_ESaIS8_EE15_M_destroy_nodeEPSt13_Rb_tree_nodeIS8_E
000000000002a978 W _ZNSt8_Rb_treeINSt7__cxx1112basic_stringIcSt11char_traitsIcESaIcEEESt4pairIKS5_S5_ESt10_Select1stIS8_ESt4lessIS5_ESaIS8_EE17_M_construct_nodeEPSt13_Rb_tree_nodeIS8_ERKS8_
0000000000027fec W _ZNSt8_Rb_treeINSt7__cxx1112basic_stringIcSt11char_traitsIcESaIcEEESt4pairIKS5_S5_ESt10_Select1stIS8_ESt4lessIS5_ESaIS8_EE17_M_insert_unique_ESt23_Rb_tree_const_iteratorIS8_ERKS8_
00000000000286a0 W _ZNSt8_Rb_treeINSt7__cxx1112basic_stringIcSt11char_traitsIcESaIcEEESt4pairIKS5_S5_ESt10_Select1stIS8_ESt4lessIS5_ESaIS8_EE17_M_insert_unique_INSE_11_Alloc_nodeEEESt17_Rb_tree_iteratorIS8_ESt23_Rb_tree_const_iteratorIS8_ERKS8_RT_
00000000000c45c4 W _ZNSt8_Rb_treeINSt7__cxx1112basic_stringIcSt11char_traitsIcESaIcEEESt4pairIKS5_S5_ESt10_Select1stIS8_ESt4lessIS5_ESaIS8_EE20_Reuse_or_alloc_node10_M_extractEv
00000000000b93ca W _ZNSt8_Rb_treeINSt7__cxx1112basic_stringIcSt11char_traitsIcESaIcEEESt4pairIKS5_S5_ESt10_Select1stIS8_ESt4lessIS5_ESaIS8_EE20_Reuse_or_alloc_nodeC1ERSE_
00000000000b93ca W _ZNSt8_Rb_treeINSt7__cxx1112basic_stringIcSt11char_traitsIcESaIcEEESt4pairIKS5_S5_ESt10_Select1stIS8_ESt4lessIS5_ESaIS8_EE20_Reuse_or_alloc_nodeC2ERSE_
00000000000b95bc W _ZNSt8_Rb_treeINSt7__cxx1112basic_stringIcSt11char_traitsIcESaIcEEESt4pairIKS5_S5_ESt10_Select1stIS8_ESt4lessIS5_ESaIS8_EE20_Reuse_or_alloc_nodeD1Ev
00000000000b95bc W _ZNSt8_Rb_treeINSt7__cxx1112basic_stringIcSt11char_traitsIcESaIcEEESt4pairIKS5_S5_ESt10_Select1stIS8_ESt4lessIS5_ESaIS8_EE20_Reuse_or_alloc_nodeD2Ev
00000000000c21be W _ZNSt8_Rb_treeINSt7__cxx1112basic_stringIcSt11char_traitsIcESaIcEEESt4pairIKS5_S5_ESt10_Select1stIS8_ESt4lessIS5_ESaIS8_EE20_Reuse_or_alloc_nodeclIS8_EEPSt13_Rb_tree_nodeIS8_ERKT_
000000000002897e W _ZNSt8_Rb_treeINSt7__cxx1112basic_stringIcSt11char_traitsIcESaIcEEESt4pairIKS5_S5_ESt10_Select1stIS8_ESt4lessIS5_ESaIS8_EE21_M_get_Node_allocatorEv
000000000002a11c W _ZNSt8_Rb_treeINSt7__cxx1112basic_stringIcSt11char_traitsIcESaIcEEESt4pairIKS5_S5_ESt10_Select1stIS8_ESt4lessIS5_ESaIS8_EE24_M_get_insert_unique_posERS7_
0000000000028d9c W _ZNSt8_Rb_treeINSt7__cxx1112basic_stringIcSt11char_traitsIcESaIcEEESt4pairIKS5_S5_ESt10_Select1stIS8_ESt4lessIS5_ESaIS8_EE29_M_get_insert_hint_unique_posESt23_Rb_tree_const_iteratorIS8_ERS7_
0000000000027b2e W _ZNSt8_Rb_treeINSt7__cxx1112basic_stringIcSt11char_traitsIcESaIcEEESt4pairIKS5_S5_ESt10_Select1stIS8_ESt4lessIS5_ESaIS8_EE3endEv
00000000000499de W _ZNSt8_Rb_treeINSt7__cxx1112basic_stringIcSt11char_traitsIcESaIcEEESt4pairIKS5_S5_ESt10_Select1stIS8_ESt4lessIS5_ESaIS8_EE4findERS7_
00000000000279f0 W _ZNSt8_Rb_treeINSt7__cxx1112basic_stringIcSt11char_traitsIcESaIcEEESt4pairIKS5_S5_ESt10_Select1stIS8_ESt4lessIS5_ESaIS8_EE5beginEv
00000000000284dc W _ZNSt8_Rb_treeINSt7__cxx1112basic_stringIcSt11char_traitsIcESaIcEEESt4pairIKS5_S5_ESt10_Select1stIS8_ESt4lessIS5_ESaIS8_EE6_M_endEv
0000000000028ca4 W _ZNSt8_Rb_treeINSt7__cxx1112basic_stringIcSt11char_traitsIcESaIcEEESt4pairIKS5_S5_ESt10_Select1stIS8_ESt4lessIS5_ESaIS8_EE6_S_keyEPKSt13_Rb_tree_nodeIS8_E
0000000000029f67 W _ZNSt8_Rb_treeINSt7__cxx1112basic_stringIcSt11char_traitsIcESaIcEEESt4pairIKS5_S5_ESt10_Select1stIS8_ESt4lessIS5_ESaIS8_EE6_S_keyEPKSt18_Rb_tree_node_base
0000000000027df8 W _ZNSt8_Rb_treeINSt7__cxx1112basic_stringIcSt11char_traitsIcESaIcEEESt4pairIKS5_S5_ESt10_Select1stIS8_ESt4lessIS5_ESaIS8_EE7_M_copyERKSE_
00000000000289d8 W _ZNSt8_Rb_treeINSt7__cxx1112basic_stringIcSt11char_traitsIcESaIcEEESt4pairIKS5_S5_ESt10_Select1stIS8_ESt4lessIS5_ESaIS8_EE7_M_copyINSE_11_Alloc_nodeEEEPSt13_Rb_tree_nodeIS8_EPKSI_PSt18_Rb_tree_node_baseRT_
00000000000283a8 W _ZNSt8_Rb_treeINSt7__cxx1112basic_stringIcSt11char_traitsIcESaIcEEESt4pairIKS5_S5_ESt10_Select1stIS8_ESt4lessIS5_ESaIS8_EE7_M_copyINSE_11_Alloc_nodeEEEPSt13_Rb_tree_nodeIS8_ERKSE_RT_
00000000000bc5ae W _ZNSt8_Rb_treeINSt7__cxx1112basic_stringIcSt11char_traitsIcESaIcEEESt4pairIKS5_S5_ESt10_Select1stIS8_ESt4lessIS5_ESaIS8_EE7_M_copyINSE_20_Reuse_or_alloc_nodeEEEPSt13_Rb_tree_nodeIS8_EPKSI_PSt18_Rb_tree_node_baseRT_
00000000000b962c W _ZNSt8_Rb_treeINSt7__cxx1112basic_stringIcSt11char_traitsIcESaIcEEESt4pairIKS5_S5_ESt10_Select1stIS8_ESt4lessIS5_ESaIS8_EE7_M_copyINSE_20_Reuse_or_alloc_nodeEEEPSt13_Rb_tree_nodeIS8_ERKSE_RT_
0000000000027de6 W _ZNSt8_Rb_treeINSt7__cxx1112basic_stringIcSt11char_traitsIcESaIcEEESt4pairIKS5_S5_ESt10_Select1stIS8_ESt4lessIS5_ESaIS8_EE7_M_rootEv
0000000000029dd8 W _ZNSt8_Rb_treeINSt7__cxx1112basic_stringIcSt11char_traitsIcESaIcEEESt4pairIKS5_S5_ESt10_Select1stIS8_ESt4lessIS5_ESaIS8_EE7_S_leftEPKSt18_Rb_tree_node_base
0000000000027ce0 W _ZNSt8_Rb_treeINSt7__cxx1112basic_stringIcSt11char_traitsIcESaIcEEESt4pairIKS5_S5_ESt10_Select1stIS8_ESt4lessIS5_ESaIS8_EE7_S_leftEPSt18_Rb_tree_node_base
000000000002760e W _ZNSt8_Rb_treeINSt7__cxx1112basic_stringIcSt11char_traitsIcESaIcEEESt4pairIKS5_S5_ESt10_Select1stIS8_ESt4lessIS5_ESaIS8_EE8_M_beginEv
00000000000275a8 W _ZNSt8_Rb_treeINSt7__cxx1112basic_stringIcSt11char_traitsIcESaIcEEESt4pairIKS5_S5_ESt10_Select1stIS8_ESt4lessIS5_ESaIS8_EE8_M_eraseEPSt13_Rb_tree_nodeIS8_E
0000000000029d9d W _ZNSt8_Rb_treeINSt7__cxx1112basic_stringIcSt11char_traitsIcESaIcEEESt4pairIKS5_S5_ESt10_Select1stIS8_ESt4lessIS5_ESaIS8_EE8_S_rightEPKSt18_Rb_tree_node_base
0000000000027ca5 W _ZNSt8_Rb_treeINSt7__cxx1112basic_stringIcSt11char_traitsIcESaIcEEESt4pairIKS5_S5_ESt10_Select1stIS8_ESt4lessIS5_ESaIS8_EE8_S_rightEPSt18_Rb_tree_node_base
0000000000029e13 W _ZNSt8_Rb_treeINSt7__cxx1112basic_stringIcSt11char_traitsIcESaIcEEESt4pairIKS5_S5_ESt10_Select1stIS8_ESt4lessIS5_ESaIS8_EE8_S_valueEPKSt13_Rb_tree_nodeIS8_E
000000000002a8ea W _ZNSt8_Rb_treeINSt7__cxx1112basic_stringIcSt11char_traitsIcESaIcEEESt4pairIKS5_S5_ESt10_Select1stIS8_ESt4lessIS5_ESaIS8_EE8_S_valueEPKSt18_Rb_tree_node_base
000000000002764a W _ZNSt8_Rb_treeINSt7__cxx1112basic_stringIcSt11char_traitsIcESaIcEEESt4pairIKS5_S5_ESt10_Select1stIS8_ESt4lessIS5_ESaIS8_EEC1ERKSE_
0000000000027570 W _ZNSt8_Rb_treeINSt7__cxx1112basic_stringIcSt11char_traitsIcESaIcEEESt4pairIKS5_S5_ESt10_Select1stIS8_ESt4lessIS5_ESaIS8_EEC1Ev
000000000002764a W _ZNSt8_Rb_treeINSt7__cxx1112basic_stringIcSt11char_traitsIcESaIcEEESt4pairIKS5_S5_ESt10_Select1stIS8_ESt4lessIS5_ESaIS8_EEC2ERKSE_
0000000000027570 W _ZNSt8_Rb_treeINSt7__cxx1112basic_stringIcSt11char_traitsIcESaIcEEESt4pairIKS5_S5_ESt10_Select1stIS8_ESt4lessIS5_ESaIS8_EEC2Ev
0000000000026cb6 W _ZNSt8_Rb_treeINSt7__cxx1112basic_stringIcSt11char_traitsIcESaIcEEESt4pairIKS5_S5_ESt10_Select1stIS8_ESt4lessIS5_ESaIS8_EED1Ev
0000000000026cb6 W _ZNSt8_Rb_treeINSt7__cxx1112basic_stringIcSt11char_traitsIcESaIcEEESt4pairIKS5_S5_ESt10_Select1stIS8_ESt4lessIS5_ESaIS8_EED2Ev
00000000000b686e W _ZNSt8_Rb_treeINSt7__cxx1112basic_stringIcSt11char_traitsIcESaIcEEESt4pairIKS5_S5_ESt10_Select1stIS8_ESt4lessIS5_ESaIS8_EEaSERKSE_
000000000004b8d6 W _ZNSt8_Rb_treeIfSt4pairIKfNSt7__cxx1112basic_stringIcSt11char_traitsIcESaIcEEEESt10_Select1stIS8_ESt4lessIfESaIS8_EE10_M_insert_INSE_11_Alloc_nodeEEESt17_Rb_tree_iteratorIS8_EPSt18_Rb_tree_node_baseSK_RKS8_RT_
00000000000c0097 W _ZNSt8_Rb_treeIfSt4pairIKfNSt7__cxx1112basic_stringIcSt11char_traitsIcESaIcEEEESt10_Select1stIS8_ESt4lessIfESaIS8_EE10_S_maximumEPSt18_Rb_tree_node_base
00000000000c007d W _ZNSt8_Rb_treeIfSt4pairIKfNSt7__cxx1112basic_stringIcSt11char_traitsIcESaIcEEEESt10_Select1stIS8_ESt4lessIfESaIS8_EE10_S_minimumEPSt18_Rb_tree_node_base
000000000004a8e8 W _ZNSt8_Rb_treeIfSt4pairIKfNSt7__cxx1112basic_stringIcSt11char_traitsIcESaIcEEEESt10_Select1stIS8_ESt4lessIfESaIS8_EE11_Alloc_nodeC1ERSE_
000000000004a8e8 W _ZNSt8_Rb_treeIfSt4pairIKfNSt7__cxx1112basic_stringIcSt11char_traitsIcESaIcEEEESt10_Select1stIS8_ESt4lessIfESaIS8_EE11_Alloc_nodeC2ERSE_
000000000004c6e4 W _ZNSt8_Rb_treeIfSt4pairIKfNSt7__cxx1112basic_stringIcSt11char_traitsIcESaIcEEEESt10_Select1stIS8_ESt4lessIfESaIS8_EE11_M_get_nodeEv
000000000004c51c W _ZNSt8_Rb_treeIfSt4pairIKfNSt7__cxx1112basic_stringIcSt11char_traitsIcESaIcEEEESt10_Select1stIS8_ESt4lessIfESaIS8_EE11_M_leftmostEv
000000000004a6ee W _ZNSt8_Rb_treeIfSt4pairIKfNSt7__cxx1112basic_stringIcSt11char_traitsIcESaIcEEEESt10_Select1stIS8_ESt4lessIfESaIS8_EE11_M_put_nodeEPSt13_Rb_tree_nodeIS8_E
000000000004a380 W _ZNSt8_Rb_treeIfSt4pairIKfNSt7__cxx1112basic_stringIcSt11char_traitsIcESaIcEEEESt10_Select1stIS8_ESt4lessIfESaIS8_EE11lower_boundERS1_
000000000004a08c W _ZNSt8_Rb_treeIfSt4pairIKfNSt7__cxx1112basic_stringIcSt11char_traitsIcESaIcEEEESt10_Select1stIS8_ESt4lessIfESaIS8_EE12_M_drop_nodeEPSt13_Rb_tree_nodeIS8_E
000000000004bd94 W _ZNSt8_Rb_treeIfSt4pairIKfNSt7__cxx1112basic_stringIcSt11char_traitsIcESaIcEEEESt10_Select1stIS8_ESt4lessIfESaIS8_EE12_M_rightmostEv
00000000000c2c8e W _ZNSt8_Rb_treeIfSt4pairIKfNSt7__cxx1112basic_stringIcSt11char_traitsIcESaIcEEEESt10_Select1stIS8_ESt4lessIfESaIS8_EE13_M_clone_nodeINSE_11_Alloc_nodeEEEPSt13_Rb_tree_nodeIS8_EPKSI_RT_
00000000000ba552 W _ZNSt8_Rb_treeIfSt4pairIKfNSt7__cxx1112basic_stringIcSt11char_traitsIcESaIcEEEESt10_Select1stIS8_ESt4lessIfESaIS8_EE13_Rb_tree_implISC_Lb0EEC1ERKSG_
0000000000049fd2 W _ZNSt8_Rb_treeIfSt4pairIKfNSt7__cxx1112basic_stringIcSt11char_traitsIcESaIcEEEESt10_Select1stIS8_ESt4lessIfESaIS8_EE13_Rb_tree_implISC_Lb0EEC1Ev
00000000000ba552 W _ZNSt8_Rb_treeIfSt4pairIKfNSt7__cxx1112basic_stringIcSt11char_traitsIcESaIcEEEESt10_Select1stIS8_ESt4lessIfESaIS8_EE13_Rb_tree_implISC_Lb0EEC2ERKSG_
0000000000049fd2 W _ZNSt8_Rb_treeIfSt4pairIKfNSt7__cxx1112basic_stringIcSt11char_traitsIcESaIcEEEESt10_Select1stIS8_ESt4lessIfESaIS8_EE13_Rb_tree_implISC_Lb0EEC2Ev
0000000000048802 W _ZNSt8_Rb_treeIfSt4pairIKfNSt7__cxx1112basic_stringIcSt11char_traitsIcESaIcEEEESt10_Select1stIS8_ESt4lessIfESaIS8_EE13_Rb_tree_implISC_Lb0EED1Ev
0000000000048802 W _ZNSt8_Rb_treeIfSt4pairIKfNSt7__cxx1112basic_stringIcSt11char_traitsIcESaIcEEEESt10_Select1stIS8_ESt4lessIfESaIS8_EE13_Rb_tree_implISC_Lb0EED2Ev
000000000004c698 W _ZNSt8_Rb_treeIfSt4pairIKfNSt7__cxx1112basic_stringIcSt11char_traitsIcESaIcEEEESt10_Select1stIS8_ESt4lessIfESaIS8_EE14_M_create_nodeERKS8_
000000000004a736 W _ZNSt8_Rb_treeIfSt4pairIKfNSt7__cxx1112basic_stringIcSt11char_traitsIcESaIcEEEESt10_Select1stIS8_ESt4lessIfESaIS8_EE14_M_lower_boundEPSt13_Rb_tree_nodeIS8_EPSt18_Rb_tree_node_baseRS1_
000000000004a57e W _ZNSt8_Rb_treeIfSt4pairIKfNSt7__cxx1112basic_stringIcSt11char_traitsIcESaIcEEEESt10_Select1stIS8_ESt4lessIfESaIS8_EE15_M_destroy_nodeEPSt13_Rb_tree_nodeIS8_E
000000000004c70c W _ZNSt8_Rb_treeIfSt4pairIKfNSt7__cxx1112basic_stringIcSt11char_traitsIcESaIcEEEESt10_Select1stIS8_ESt4lessIfESaIS8_EE17_M_construct_nodeEPSt13_Rb_tree_nodeIS8_ERKS8_
000000000004a43a W _ZNSt8_Rb_treeIfSt4pairIKfNSt7__cxx1112basic_stringIcSt11char_traitsIcESaIcEEEESt10_Select1stIS8_ESt4lessIfESaIS8_EE17_M_insert_unique_ESt23_Rb_tree_const_iteratorIS8_ERKS8_
000000000004a928 W _ZNSt8_Rb_treeIfSt4pairIKfNSt7__cxx1112basic_stringIcSt11char_traitsIcESaIcEEEESt10_Select1stIS8_ESt4lessIfESaIS8_EE17_M_insert_unique_INSE_11_Alloc_nodeEEESt17_Rb_tree_iteratorIS8_ESt23_Rb_tree_const_iteratorIS8_ERKS8_RT_
000000000004ac06 W _ZNSt8_Rb_treeIfSt4pairIKfNSt7__cxx1112basic_stringIcSt11char_traitsIcESaIcEEEESt10_Select1stIS8_ESt4lessIfESaIS8_EE21_M_get_Node_allocatorEv
000000000004be9e W _ZNSt8_Rb_treeIfSt4pairIKfNSt7__cxx1112basic_stringIcSt11char_traitsIcESaIcEEEESt10_Select1stIS8_ESt4lessIfESaIS8_EE24_M_get_insert_unique_posERS1_
000000000004ad0c W _ZNSt8_Rb_treeIfSt4pairIKfNSt7__cxx1112basic_stringIcSt11char_traitsIcESaIcEEEESt10_Select1stIS8_ESt4lessIfESaIS8_EE29_M_get_insert_hint_unique_posESt23_Rb_tree_const_iteratorIS8_ERS1_
0000000000049512 W _ZNSt8_Rb_treeIfSt4pairIKfNSt7__cxx1112basic_stringIcSt11char_traitsIcESaIcEEEESt10_Select1stIS8_ESt4lessIfESaIS8_EE3endEv
00000000000493d4 W _ZNSt8_Rb_treeIfSt4pairIKfNSt7__cxx1112basic_stringIcSt11char_traitsIcESaIcEEEESt10_Select1stIS8_ESt4lessIfESaIS8_EE5beginEv
000000000004a724 W _ZNSt8_Rb_treeIfSt4pairIKfNSt7__cxx1112basic_stringIcSt11char_traitsIcESaIcEEEESt10_Select1stIS8_ESt4lessIfESaIS8_EE6_M_endEv
000000000004ac14 W _ZNSt8_Rb_treeIfSt4pairIKfNSt7__cxx1112basic_stringIcSt11char_traitsIcESaIcEEEESt10_Select1stIS8_ESt4lessIfESaIS8_EE6_S_keyEPKSt13_Rb_tree_nodeIS8_E
000000000004bda6 W _ZNSt8_Rb_treeIfSt4pairIKfNSt7__cxx1112basic_stringIcSt11char_traitsIcESaIcEEEESt10_Select1stIS8_ESt4lessIfESaIS8_EE6_S_keyEPKSt18_Rb_tree_node_base
00000000000ba5f4 W _ZNSt8_Rb_treeIfSt4pairIKfNSt7__cxx1112basic_stringIcSt11char_traitsIcESaIcEEEESt10_Select1stIS8_ESt4lessIfESaIS8_EE7_M_copyERKSE_
00000000000bfe0a W _ZNSt8_Rb_treeIfSt4pairIKfNSt7__cxx1112basic_stringIcSt11char_traitsIcESaIcEEEESt10_Select1stIS8_ESt4lessIfESaIS8_EE7_M_copyINSE_11_Alloc_nodeEEEPSt13_Rb_tree_nodeIS8_EPKSI_PSt18_Rb_tree_node_baseRT_
00000000000bd5c4 W _ZNSt8_Rb_treeIfSt4pairIKfNSt7__cxx1112basic_stringIcSt11char_traitsIcESaIcEEEESt10_Select1stIS8_ESt4lessIfESaIS8_EE7_M_copyINSE_11_Alloc_nodeEEEPSt13_Rb_tree_nodeIS8_ERKSE_RT_
00000000000ba5e2 W _ZNSt8_Rb_treeIfSt4pairIKfNSt7__cxx1112basic_stringIcSt11char_traitsIcESaIcEEEESt10_Select1stIS8_ESt4lessIfESaIS8_EE7_M_rootEv
00000000000c2dd2 W _ZNSt8_Rb_treeIfSt4pairIKfNSt7__cxx1112basic_stringIcSt11char_traitsIcESaIcEEEESt10_Select1stIS8_ESt4lessIfESaIS8_EE7_S_leftEPKSt18_Rb_tree_node_base
000000000004a050 W _ZNSt8_Rb_treeIfSt4pairIKfNSt7__cxx1112basic_stringIcSt11char_traitsIcESaIcEEEESt10_Select1stIS8_ESt4lessIfESaIS8_EE7_S_leftEPSt18_Rb_tree_node_base
0000000000049398 W _ZNSt8_Rb_treeIfSt4pairIKfNSt7__cxx1112basic_stringIcSt11char_traitsIcESaIcEEEESt10_Select1stIS8_ESt4lessIfESaIS8_EE8_M_beginEv
0000000000049332 W _ZNSt8_Rb_treeIfSt4pairIKfNSt7__cxx1112basic_stringIcSt11char_traitsIcESaIcEEEESt10_Select1stIS8_ESt4lessIfESaIS8_EE8_M_eraseEPSt13_Rb_tree_nodeIS8_E
00000000000c2d97 W _ZNSt8_Rb_treeIfSt4pairIKfNSt7__cxx1112basic_stringIcSt11char_traitsIcESaIcEEEESt10_Select1stIS8_ESt4lessIfESaIS8_EE8_S_rightEPKSt18_Rb_tree_node_base
000000000004a015 W _ZNSt8_Rb_treeIfSt4pairIKfNSt7__cxx1112basic_stringIcSt11char_traitsIcESaIcEEEESt10_Select1stIS8_ESt4lessIfESaIS8_EE8_S_rightEPSt18_Rb_tree_node_base
000000000004bc03 W _ZNSt8_Rb_treeIfSt4pairIKfNSt7__cxx1112basic_stringIcSt11char_traitsIcESaIcEEEESt10_Select1stIS8_ESt4lessIfESaIS8_EE8_S_valueEPKSt13_Rb_tree_nodeIS8_E
000000000004c67e W _ZNSt8_Rb_treeIfSt4pairIKfNSt7__cxx1112basic_stringIcSt11char_traitsIcESaIcEEEESt10_Select1stIS8_ESt4lessIfESaIS8_EE8_S_valueEPKSt18_Rb_tree_node_base
00000000000b7354 W _ZNSt8_Rb_treeIfSt4pairIKfNSt7__cxx1112basic_stringIcSt11char_traitsIcESaIcEEEESt10_Select1stIS8_ESt4lessIfESaIS8_EEC1ERKSE_
00000000000492fa W _ZNSt8_Rb_treeIfSt4pairIKfNSt7__cxx1112basic_stringIcSt11char_traitsIcESaIcEEEESt10_Select1stIS8_ESt4lessIfESaIS8_EEC1Ev
00000000000b7354 W _ZNSt8_Rb_treeIfSt4pairIKfNSt7__cxx1112basic_stringIcSt11char_traitsIcESaIcEEEESt10_Select1stIS8_ESt4lessIfESaIS8_EEC2ERKSE_
00000000000492fa W _ZNSt8_Rb_treeIfSt4pairIKfNSt7__cxx1112basic_stringIcSt11char_traitsIcESaIcEEEESt10_Select1stIS8_ESt4lessIfESaIS8_EEC2Ev
000000000004881e W _ZNSt8_Rb_treeIfSt4pairIKfNSt7__cxx1112basic_stringIcSt11char_traitsIcESaIcEEEESt10_Select1stIS8_ESt4lessIfESaIS8_EED1Ev
000000000004881e W _ZNSt8_Rb_treeIfSt4pairIKfNSt7__cxx1112basic_stringIcSt11char_traitsIcESaIcEEEESt10_Select1stIS8_ESt4lessIfESaIS8_EED2Ev
00000000000c1be2 W _ZNSt8_Rb_treeIiSt4pairIKi5RouteESt10_Select1stIS3_ESt4lessIiESaIS3_EE10_M_insert_INS9_11_Alloc_nodeEEESt17_Rb_tree_iteratorIS3_EPSt18_Rb_tree_node_baseSF_RKS3_RT_
00000000000be2b0 W _ZNSt8_Rb_treeIiSt4pairIKi5RouteESt10_Select1stIS3_ESt4lessIiESaIS3_EE11_Alloc_nodeC1ERS9_
00000000000be2b0 W _ZNSt8_Rb_treeIiSt4pairIKi5RouteESt10_Select1stIS3_ESt4lessIiESaIS3_EE11_Alloc_nodeC2ERS9_
00000000000c4d86 W _ZNSt8_Rb_treeIiSt4pairIKi5RouteESt10_Select1stIS3_ESt4lessIiESaIS3_EE11_M_get_nodeEv
00000000000c3f74 W _ZNSt8_Rb_treeIiSt4pairIKi5RouteESt10_Select1stIS3_ESt4lessIiESaIS3_EE11_M_leftmostEv
00000000000be27a W _ZNSt8_Rb_treeIiSt4pairIKi5RouteESt10_Select1stIS3_ESt4lessIiESaIS3_EE11_M_put_nodeEPSt13_Rb_tree_nodeIS3_E
00000000000bb6d2 W _ZNSt8_Rb_treeIiSt4pairIKi5RouteESt10_Select1stIS3_ESt4lessIiESaIS3_EE11lower_boundERS1_
00000000000bb698 W _ZNSt8_Rb_treeIiSt4pairIKi5RouteESt10_Select1stIS3_ESt4lessIiESaIS3_EE12_M_drop_nodeEPSt13_Rb_tree_nodeIS3_E
00000000000c38e4 W _ZNSt8_Rb_treeIiSt4pairIKi5RouteESt10_Select1stIS3_ESt4lessIiESaIS3_EE12_M_rightmostEv
00000000000bb5de W _ZNSt8_Rb_treeIiSt4pairIKi5RouteESt10_Select1stIS3_ESt4lessIiESaIS3_EE13_Rb_tree_implIS7_Lb0EEC1Ev
00000000000bb5de W _ZNSt8_Rb_treeIiSt4pairIKi5RouteESt10_Select1stIS3_ESt4lessIiESaIS3_EE13_Rb_tree_implIS7_Lb0EEC2Ev
00000000000b53f4 W _ZNSt8_Rb_treeIiSt4pairIKi5RouteESt10_Select1stIS3_ESt4lessIiESaIS3_EE13_Rb_tree_implIS7_Lb0EED1Ev
00000000000b53f4 W _ZNSt8_Rb_treeIiSt4pairIKi5RouteESt10_Select1stIS3_ESt4lessIiESaIS3_EE13_Rb_tree_implIS7_Lb0EED2Ev
00000000000c4aac W _ZNSt8_Rb_treeIiSt4pairIKi5RouteESt10_Select1stIS3_ESt4lessIiESaIS3_EE14_M_create_nodeERKS3_
00000000000bb8d8 W _ZNSt8_Rb_treeIiSt4pairIKi5RouteESt10_Select1stIS3_ESt4lessIiESaIS3_EE14_M_lower_boundEPSt13_Rb_tree_nodeIS3_EPSt18_Rb_tree_node_baseRS1_
00000000000be10a W _ZNSt8_Rb_treeIiSt4pairIKi5RouteESt10_Select1stIS3_ESt4lessIiESaIS3_EE15_M_destroy_nodeEPSt13_Rb_tree_nodeIS3_E
00000000000c4dae W _ZNSt8_Rb_treeIiSt4pairIKi5RouteESt10_Select1stIS3_ESt4lessIiESaIS3_EE17_M_construct_nodeEPSt13_Rb_tree_nodeIS3_ERKS3_
00000000000bb7aa W _ZNSt8_Rb_treeIiSt4pairIKi5RouteESt10_Select1stIS3_ESt4lessIiESaIS3_EE17_M_insert_unique_ESt23_Rb_tree_const_iteratorIS3_ERKS3_
00000000000be2f0 W _ZNSt8_Rb_treeIiSt4pairIKi5RouteESt10_Select1stIS3_ESt4lessIiESaIS3_EE17_M_insert_unique_INS9_11_Alloc_nodeEEESt17_Rb_tree_iteratorIS3_ESt23_Rb_tree_const_iteratorIS3_ERKS3_RT_
00000000000c101c W _ZNSt8_Rb_treeIiSt4pairIKi5RouteESt10_Select1stIS3_ESt4lessIiESaIS3_EE21_M_get_Node_allocatorEv
00000000000c38f6 W _ZNSt8_Rb_treeIiSt4pairIKi5RouteESt10_Select1stIS3_ESt4lessIiESaIS3_EE24_M_get_insert_unique_posERS1_
00000000000c102a W _ZNSt8_Rb_treeIiSt4pairIKi5RouteESt10_Select1stIS3_ESt4lessIiESaIS3_EE29_M_get_insert_hint_unique_posESt23_Rb_tree_const_iteratorIS3_ERS1_
00000000000b86de W _ZNSt8_Rb_treeIiSt4pairIKi5RouteESt10_Select1stIS3_ESt4lessIiESaIS3_EE3endEv
00000000000b845c W _ZNSt8_Rb_treeIiSt4pairIKi5RouteESt10_Select1stIS3_ESt4lessIiESaIS3_EE4findERS1_
00000000000c496e W _ZNSt8_Rb_treeIiSt4pairIKi5RouteESt10_Select1stIS3_ESt4lessIiESaIS3_EE5beginEv
00000000000bb8c6 W _ZNSt8_Rb_treeIiSt4pairIKi5RouteESt10_Select1stIS3_ESt4lessIiESaIS3_EE6_M_endEv
00000000000be523 W _ZNSt8_Rb_treeIiSt4pairIKi5RouteESt10_Select1stIS3_ESt4lessIiESaIS3_EE6_S_keyEPKSt13_Rb_tree_nodeIS3_E
00000000000bba89 W _ZNSt8_Rb_treeIiSt4pairIKi5RouteESt10_Select1stIS3_ESt4lessIiESaIS3_EE6_S_keyEPKSt18_Rb_tree_node_base
00000000000b87f4 W _ZNSt8_Rb_treeIiSt4pairIKi5RouteESt10_Select1stIS3_ESt4lessIiESaIS3_EE6rbeginEv
00000000000bb65c W _ZNSt8_Rb_treeIiSt4pairIKi5RouteESt10_Select1stIS3_ESt4lessIiESaIS3_EE7_S_leftEPSt18_Rb_tree_node_base
00000000000b81b2 W _ZNSt8_Rb_treeIiSt4pairIKi5RouteESt10_Select1stIS3_ESt4lessIiESaIS3_EE8_M_beginEv
00000000000b814c W _ZNSt8_Rb_treeIiSt4pairIKi5RouteESt10_Select1stIS3_ESt4lessIiESaIS3_EE8_M_eraseEPSt13_Rb_tree_nodeIS3_E
00000000000bb621 W _ZNSt8_Rb_treeIiSt4pairIKi5RouteESt10_Select1stIS3_ESt4lessIiESaIS3_EE8_S_rightEPSt18_Rb_tree_node_base
00000000000c1eb1 W _ZNSt8_Rb_treeIiSt4pairIKi5RouteESt10_Select1stIS3_ESt4lessIiESaIS3_EE8_S_valueEPKSt13_Rb_tree_nodeIS3_E
00000000000be61b W _ZNSt8_Rb_treeIiSt4pairIKi5RouteESt10_Select1stIS3_ESt4lessIiESaIS3_EE8_S_valueEPKSt18_Rb_tree_node_base
00000000000b8114 W _ZNSt8_Rb_treeIiSt4pairIKi5RouteESt10_Select1stIS3_ESt4lessIiESaIS3_EEC1Ev
00000000000b8114 W _ZNSt8_Rb_treeIiSt4pairIKi5RouteESt10_Select1stIS3_ESt4lessIiESaIS3_EEC2Ev
00000000000b5410 W _ZNSt8_Rb_treeIiSt4pairIKi5RouteESt10_Select1stIS3_ESt4lessIiESaIS3_EED1Ev
00000000000b5410 W _ZNSt8_Rb_treeIiSt4pairIKi5RouteESt10_Select1stIS3_ESt4lessIiESaIS3_EED2Ev
000000000006000c W _ZNSt8_Rb_treeIiSt4pairIKiNSt7__cxx1112basic_stringIcSt11char_traitsIcESaIcEEEESt10_Select1stIS8_ESt4lessIiESaIS8_EE10_M_insert_INSE_11_Alloc_nodeEEESt17_Rb_tree_iteratorIS8_EPSt18_Rb_tree_node_baseSK_RKS8_RT_
000000000005e558 W _ZNSt8_Rb_treeIiSt4pairIKiNSt7__cxx1112basic_stringIcSt11char_traitsIcESaIcEEEESt10_Select1stIS8_ESt4lessIiESaIS8_EE10_S_maximumEPSt18_Rb_tree_node_base
000000000005e53e W _ZNSt8_Rb_treeIiSt4pairIKiNSt7__cxx1112basic_stringIcSt11char_traitsIcESaIcEEEESt10_Select1stIS8_ESt4lessIiESaIS8_EE10_S_minimumEPSt18_Rb_tree_node_base
000000000005e980 W _ZNSt8_Rb_treeIiSt4pairIKiNSt7__cxx1112basic_stringIcSt11char_traitsIcESaIcEEEESt10_Select1stIS8_ESt4lessIiESaIS8_EE11_Alloc_nodeC1ERSE_
000000000005e980 W _ZNSt8_Rb_treeIiSt4pairIKiNSt7__cxx1112basic_stringIcSt11char_traitsIcESaIcEEEESt10_Select1stIS8_ESt4lessIiESaIS8_EE11_Alloc_nodeC2ERSE_
000000000006142a W _ZNSt8_Rb_treeIiSt4pairIKiNSt7__cxx1112basic_stringIcSt11char_traitsIcESaIcEEEESt10_Select1stIS8_ESt4lessIiESaIS8_EE11_M_get_nodeEv
000000000005e52c W _ZNSt8_Rb_treeIiSt4pairIKiNSt7__cxx1112basic_stringIcSt11char_traitsIcESaIcEEEESt10_Select1stIS8_ESt4lessIiESaIS8_EE11_M_leftmostEv
000000000005e1fc W _ZNSt8_Rb_treeIiSt4pairIKiNSt7__cxx1112basic_stringIcSt11char_traitsIcESaIcEEEESt10_Select1stIS8_ESt4lessIiESaIS8_EE11_M_put_nodeEPSt13_Rb_tree_nodeIS8_E
000000000005dac6 W _ZNSt8_Rb_treeIiSt4pairIKiNSt7__cxx1112basic_stringIcSt11char_traitsIcESaIcEEEESt10_Select1stIS8_ESt4lessIiESaIS8_EE11lower_boundERS1_
000000000005d228 W _ZNSt8_Rb_treeIiSt4pairIKiNSt7__cxx1112basic_stringIcSt11char_traitsIcESaIcEEEESt10_Select1stIS8_ESt4lessIiESaIS8_EE12_M_drop_nodeEPSt13_Rb_tree_nodeIS8_E
000000000005e294 W _ZNSt8_Rb_treeIiSt4pairIKiNSt7__cxx1112basic_stringIcSt11char_traitsIcESaIcEEEESt10_Select1stIS8_ESt4lessIiESaIS8_EE12_M_rightmostEv
000000000005edb2 W _ZNSt8_Rb_treeIiSt4pairIKiNSt7__cxx1112basic_stringIcSt11char_traitsIcESaIcEEEESt10_Select1stIS8_ESt4lessIiESaIS8_EE13_M_clone_nodeINSE_20_Reuse_or_alloc_nodeEEEPSt13_Rb_tree_nodeIS8_EPKSI_RT_
000000000005d16e W _ZNSt8_Rb_treeIiSt4pairIKiNSt7__cxx1112basic_stringIcSt11char_traitsIcESaIcEEEESt10_Select1stIS8_ESt4lessIiESaIS8_EE13_Rb_tree_implISC_Lb0EEC1Ev
000000000005d16e W _ZNSt8_Rb_treeIiSt4pairIKiNSt7__cxx1112basic_stringIcSt11char_traitsIcESaIcEEEESt10_Select1stIS8_ESt4lessIiESaIS8_EE13_Rb_tree_implISC_Lb0EEC2Ev
000000000005a6e2 W _ZNSt8_Rb_treeIiSt4pairIKiNSt7__cxx1112basic_stringIcSt11char_traitsIcESaIcEEEESt10_Select1stIS8_ESt4lessIiESaIS8_EE13_Rb_tree_implISC_Lb0EED1Ev
000000000005a6e2 W _ZNSt8_Rb_treeIiSt4pairIKiNSt7__cxx1112basic_stringIcSt11char_traitsIcESaIcEEEESt10_Select1stIS8_ESt4lessIiESaIS8_EE13_Rb_tree_implISC_Lb0EED2Ev
00000000000612e4 W _ZNSt8_Rb_treeIiSt4pairIKiNSt7__cxx1112basic_stringIcSt11char_traitsIcESaIcEEEESt10_Select1stIS8_ESt4lessIiESaIS8_EE14_M_create_nodeERKS8_
000000000005e7ce W _ZNSt8_Rb_treeIiSt4pairIKiNSt7__cxx1112basic_stringIcSt11char_traitsIcESaIcEEEESt10_Select1stIS8_ESt4lessIiESaIS8_EE14_M_lower_boundEPSt13_Rb_tree_nodeIS8_EPSt18_Rb_tree_node_baseRS1_
000000000005e08c W _ZNSt8_Rb_treeIiSt4pairIKiNSt7__cxx1112basic_stringIcSt11char_traitsIcESaIcEEEESt10_Select1stIS8_ESt4lessIiESaIS8_EE15_M_destroy_nodeEPSt13_Rb_tree_nodeIS8_E
0000000000061116 W _ZNSt8_Rb_treeIiSt4pairIKiNSt7__cxx1112basic_stringIcSt11char_traitsIcESaIcEEEESt10_Select1stIS8_ESt4lessIiESaIS8_EE17_M_construct_nodeEPSt13_Rb_tree_nodeIS8_ERKS8_
000000000005db80 W _ZNSt8_Rb_treeIiSt4pairIKiNSt7__cxx1112basic_stringIcSt11char_traitsIcESaIcEEEESt10_Select1stIS8_ESt4lessIiESaIS8_EE17_M_insert_unique_ESt23_Rb_tree_const_iteratorIS8_ERKS8_
000000000005e9c0 W _ZNSt8_Rb_treeIiSt4pairIKiNSt7__cxx1112basic_stringIcSt11char_traitsIcESaIcEEEESt10_Select1stIS8_ESt4lessIiESaIS8_EE17_M_insert_unique_INSE_11_Alloc_nodeEEESt17_Rb_tree_iteratorIS8_ESt23_Rb_tree_const_iteratorIS8_ERKS8_RT_
0000000000060dd0 W _ZNSt8_Rb_treeIiSt4pairIKiNSt7__cxx1112basic_stringIcSt11char_traitsIcESaIcEEEESt10_Select1stIS8_ESt4lessIiESaIS8_EE20_Reuse_or_alloc_node10_M_extractEv
000000000005d34e W _ZNSt8_Rb_treeIiSt4pairIKiNSt7__cxx1112basic_stringIcSt11char_traitsIcESaIcEEEESt10_Select1stIS8_ESt4lessIiESaIS8_EE20_Reuse_or_alloc_nodeC1ERSE_
000000000005d34e W _ZNSt8_Rb_treeIiSt4pairIKiNSt7__cxx1112basic_stringIcSt11char_traitsIcESaIcEEEESt10_Select1stIS8_ESt4lessIiESaIS8_EE20_Reuse_or_alloc_nodeC2ERSE_
000000000005d540 W _ZNSt8_Rb_treeIiSt4pairIKiNSt7__cxx1112basic_stringIcSt11char_traitsIcESaIcEEEESt10_Select1stIS8_ESt4lessIiESaIS8_EE20_Reuse_or_alloc_nodeD1Ev
000000000005d540 W _ZNSt8_Rb_treeIiSt4pairIKiNSt7__cxx1112basic_stringIcSt11char_traitsIcESaIcEEEESt10_Select1stIS8_ESt4lessIiESaIS8_EE20_Reuse_or_alloc_nodeD2Ev
0000000000060362 W _ZNSt8_Rb_treeIiSt4pairIKiNSt7__cxx1112basic_stringIcSt11char_traitsIcESaIcEEEESt10_Select1stIS8_ESt4lessIiESaIS8_EE20_Reuse_or_alloc_nodeclIS8_EEPSt13_Rb_tree_nodeIS8_ERKT_
000000000005ed28 W _ZNSt8_Rb_treeIiSt4pairIKiNSt7__cxx1112basic_stringIcSt11char_traitsIcESaIcEEEESt10_Select1stIS8_ESt4lessIiESaIS8_EE21_M_get_Node_allocatorEv
0000000000060620 W _ZNSt8_Rb_treeIiSt4pairIKiNSt7__cxx1112basic_stringIcSt11char_traitsIcESaIcEEEESt10_Select1stIS8_ESt4lessIiESaIS8_EE24_M_get_insert_unique_posERS1_
000000000005f454 W _ZNSt8_Rb_treeIiSt4pairIKiNSt7__cxx1112basic_stringIcSt11char_traitsIcESaIcEEEESt10_Select1stIS8_ESt4lessIiESaIS8_EE29_M_get_insert_hint_unique_posESt23_Rb_tree_const_iteratorIS8_ERS1_
000000000005c996 W _ZNSt8_Rb_treeIiSt4pairIKiNSt7__cxx1112basic_stringIcSt11char_traitsIcESaIcEEEESt10_Select1stIS8_ESt4lessIiESaIS8_EE3endEv
000000000005c858 W _ZNSt8_Rb_treeIiSt4pairIKiNSt7__cxx1112basic_stringIcSt11char_traitsIcESaIcEEEESt10_Select1stIS8_ESt4lessIiESaIS8_EE5beginEv
000000000005e2a6 W _ZNSt8_Rb_treeIiSt4pairIKiNSt7__cxx1112basic_stringIcSt11char_traitsIcESaIcEEEESt10_Select1stIS8_ESt4lessIiESaIS8_EE6_M_endEv
0000000000053e58 W _ZNSt8_Rb_treeIiSt4pairIKiNSt7__cxx1112basic_stringIcSt11char_traitsIcESaIcEEEESt10_Select1stIS8_ESt4lessIiESaIS8_EE6_S_keyEPKSt13_Rb_tree_nodeIS8_E
0000000000053cbc W _ZNSt8_Rb_treeIiSt4pairIKiNSt7__cxx1112basic_stringIcSt11char_traitsIcESaIcEEEESt10_Select1stIS8_ESt4lessIiESaIS8_EE6_S_keyEPKSt18_Rb_tree_node_base
000000000005e2b8 W _ZNSt8_Rb_treeIiSt4pairIKiNSt7__cxx1112basic_stringIcSt11char_traitsIcESaIcEEEESt10_Select1stIS8_ESt4lessIiESaIS8_EE7_M_copyINSE_20_Reuse_or_alloc_nodeEEEPSt13_Rb_tree_nodeIS8_EPKSI_PSt18_Rb_tree_node_baseRT_
000000000005d5fe W _ZNSt8_Rb_treeIiSt4pairIKiNSt7__cxx1112basic_stringIcSt11char_traitsIcESaIcEEEESt10_Select1stIS8_ESt4lessIiESaIS8_EE7_M_copyINSE_20_Reuse_or_alloc_nodeEEEPSt13_Rb_tree_nodeIS8_ERKSE_RT_
000000000005d5ec W _ZNSt8_Rb_treeIiSt4pairIKiNSt7__cxx1112basic_stringIcSt11char_traitsIcESaIcEEEESt10_Select1stIS8_ESt4lessIiESaIS8_EE7_M_rootEv
0000000000053f50 W _ZNSt8_Rb_treeIiSt4pairIKiNSt7__cxx1112basic_stringIcSt11char_traitsIcESaIcEEEESt10_Select1stIS8_ESt4lessIiESaIS8_EE7_S_leftEPKSt18_Rb_tree_node_base
000000000005d1ec W _ZNSt8_Rb_treeIiSt4pairIKiNSt7__cxx1112basic_stringIcSt11char_traitsIcESaIcEEEESt10_Select1stIS8_ESt4lessIiESaIS8_EE7_S_leftEPSt18_Rb_tree_node_base
000000000005bd8a W _ZNSt8_Rb_treeIiSt4pairIKiNSt7__cxx1112basic_stringIcSt11char_traitsIcESaIcEEEESt10_Select1stIS8_ESt4lessIiESaIS8_EE8_M_beginEv
000000000005bd24 W _ZNSt8_Rb_treeIiSt4pairIKiNSt7__cxx1112basic_stringIcSt11char_traitsIcESaIcEEEESt10_Select1stIS8_ESt4lessIiESaIS8_EE8_M_eraseEPSt13_Rb_tree_nodeIS8_E
0000000000053f8b W _ZNSt8_Rb_treeIiSt4pairIKiNSt7__cxx1112basic_stringIcSt11char_traitsIcESaIcEEEESt10_Select1stIS8_ESt4lessIiESaIS8_EE8_S_rightEPKSt18_Rb_tree_node_base
000000000005d1b1 W _ZNSt8_Rb_treeIiSt4pairIKiNSt7__cxx1112basic_stringIcSt11char_traitsIcESaIcEEEESt10_Select1stIS8_ESt4lessIiESaIS8_EE8_S_rightEPSt18_Rb_tree_node_base
0000000000054032 W _ZNSt8_Rb_treeIiSt4pairIKiNSt7__cxx1112basic_stringIcSt11char_traitsIcESaIcEEEESt10_Select1stIS8_ESt4lessIiESaIS8_EE8_S_valueEPKSt13_Rb_tree_nodeIS8_E
0000000000054005 W _ZNSt8_Rb_treeIiSt4pairIKiNSt7__cxx1112basic_stringIcSt11char_traitsIcESaIcEEEESt10_Select1stIS8_ESt4lessIiESaIS8_EE8_S_valueEPKSt18_Rb_tree_node_base
000000000005bcec W _ZNSt8_Rb_treeIiSt4pairIKiNSt7__cxx1112basic_stringIcSt11char_traitsIcESaIcEEEESt10_Select1stIS8_ESt4lessIiESaIS8_EEC1Ev
000000000005bcec W _ZNSt8_Rb_treeIiSt4pairIKiNSt7__cxx1112basic_stringIcSt11char_traitsIcESaIcEEEESt10_Select1stIS8_ESt4lessIiESaIS8_EEC2Ev
000000000005a6fe W _ZNSt8_Rb_treeIiSt4pairIKiNSt7__cxx1112basic_stringIcSt11char_traitsIcESaIcEEEESt10_Select1stIS8_ESt4lessIiESaIS8_EED1Ev
000000000005a6fe W _ZNSt8_Rb_treeIiSt4pairIKiNSt7__cxx1112basic_stringIcSt11char_traitsIcESaIcEEEESt10_Select1stIS8_ESt4lessIiESaIS8_EED2Ev
000000000005bef0 W _ZNSt8_Rb_treeIiSt4pairIKiNSt7__cxx1112basic_stringIcSt11char_traitsIcESaIcEEEESt10_Select1stIS8_ESt4lessIiESaIS8_EEaSERKSE_
00000000000bfa9c W _ZNSt8_Rb_treeIlSt4pairIKlNSt7__cxx1112basic_stringIcSt11char_traitsIcESaIcEEEESt10_Select1stIS8_ESt4lessIlESaIS8_EE10_M_insert_INSE_11_Alloc_nodeEEESt17_Rb_tree_iteratorIS8_EPSt18_Rb_tree_node_baseSK_RKS8_RT_
00000000000bc338 W _ZNSt8_Rb_treeIlSt4pairIKlNSt7__cxx1112basic_stringIcSt11char_traitsIcESaIcEEEESt10_Select1stIS8_ESt4lessIlESaIS8_EE10_S_maximumEPSt18_Rb_tree_node_base
00000000000bc31e W _ZNSt8_Rb_treeIlSt4pairIKlNSt7__cxx1112basic_stringIcSt11char_traitsIcESaIcEEEESt10_Select1stIS8_ESt4lessIlESaIS8_EE10_S_minimumEPSt18_Rb_tree_node_base
00000000000bca22 W _ZNSt8_Rb_treeIlSt4pairIKlNSt7__cxx1112basic_stringIcSt11char_traitsIcESaIcEEEESt10_Select1stIS8_ESt4lessIlESaIS8_EE11_Alloc_nodeC1ERSE_
00000000000bca22 W _ZNSt8_Rb_treeIlSt4pairIKlNSt7__cxx1112basic_stringIcSt11char_traitsIcESaIcEEEESt10_Select1stIS8_ESt4lessIlESaIS8_EE11_Alloc_nodeC2ERSE_
00000000000c4bd6 W _ZNSt8_Rb_treeIlSt4pairIKlNSt7__cxx1112basic_stringIcSt11char_traitsIcESaIcEEEESt10_Select1stIS8_ESt4lessIlESaIS8_EE11_M_get_nodeEv
00000000000bc30c W _ZNSt8_Rb_treeIlSt4pairIKlNSt7__cxx1112basic_stringIcSt11char_traitsIcESaIcEEEESt10_Select1stIS8_ESt4lessIlESaIS8_EE11_M_leftmostEv
00000000000bbe5e W _ZNSt8_Rb_treeIlSt4pairIKlNSt7__cxx1112basic_stringIcSt11char_traitsIcESaIcEEEESt10_Select1stIS8_ESt4lessIlESaIS8_EE11_M_put_nodeEPSt13_Rb_tree_nodeIS8_E
00000000000b9a6a W _ZNSt8_Rb_treeIlSt4pairIKlNSt7__cxx1112basic_stringIcSt11char_traitsIcESaIcEEEESt10_Select1stIS8_ESt4lessIlESaIS8_EE11equal_rangeERS1_
00000000000b9760 W _ZNSt8_Rb_treeIlSt4pairIKlNSt7__cxx1112basic_stringIcSt11char_traitsIcESaIcEEEESt10_Select1stIS8_ESt4lessIlESaIS8_EE11lower_boundERS1_
00000000000b8b14 W _ZNSt8_Rb_treeIlSt4pairIKlNSt7__cxx1112basic_stringIcSt11char_traitsIcESaIcEEEESt10_Select1stIS8_ESt4lessIlESaIS8_EE12_M_drop_nodeEPSt13_Rb_tree_nodeIS8_E
00000000000bd3c0 W _ZNSt8_Rb_treeIlSt4pairIKlNSt7__cxx1112basic_stringIcSt11char_traitsIcESaIcEEEESt10_Select1stIS8_ESt4lessIlESaIS8_EE12_M_erase_auxESt23_Rb_tree_const_iteratorIS8_E
00000000000b9f00 W _ZNSt8_Rb_treeIlSt4pairIKlNSt7__cxx1112basic_stringIcSt11char_traitsIcESaIcEEEESt10_Select1stIS8_ESt4lessIlESaIS8_EE12_M_erase_auxESt23_Rb_tree_const_iteratorIS8_ESG_
00000000000bc038 W _ZNSt8_Rb_treeIlSt4pairIKlNSt7__cxx1112basic_stringIcSt11char_traitsIcESaIcEEEESt10_Select1stIS8_ESt4lessIlESaIS8_EE12_M_rightmostEv
00000000000be7dc W _ZNSt8_Rb_treeIlSt4pairIKlNSt7__cxx1112basic_stringIcSt11char_traitsIcESaIcEEEESt10_Select1stIS8_ESt4lessIlESaIS8_EE13_M_clone_nodeINSE_20_Reuse_or_alloc_nodeEEEPSt13_Rb_tree_nodeIS8_EPKSI_RT_
00000000000b8a5a W _ZNSt8_Rb_treeIlSt4pairIKlNSt7__cxx1112basic_stringIcSt11char_traitsIcESaIcEEEESt10_Select1stIS8_ESt4lessIlESaIS8_EE13_Rb_tree_implISC_Lb0EEC1Ev
00000000000b8a5a W _ZNSt8_Rb_treeIlSt4pairIKlNSt7__cxx1112basic_stringIcSt11char_traitsIcESaIcEEEESt10_Select1stIS8_ESt4lessIlESaIS8_EE13_Rb_tree_implISC_Lb0EEC2Ev
00000000000b3cea W _ZNSt8_Rb_treeIlSt4pairIKlNSt7__cxx1112basic_stringIcSt11char_traitsIcESaIcEEEESt10_Select1stIS8_ESt4lessIlESaIS8_EE13_Rb_tree_implISC_Lb0EED1Ev
00000000000b3cea W _ZNSt8_Rb_treeIlSt4pairIKlNSt7__cxx1112basic_stringIcSt11char_traitsIcESaIcEEEESt10_Select1stIS8_ESt4lessIlESaIS8_EE13_Rb_tree_implISC_Lb0EED2Ev
00000000000c4586 W _ZNSt8_Rb_treeIlSt4pairIKlNSt7__cxx1112basic_stringIcSt11char_traitsIcESaIcEEEESt10_Select1stIS8_ESt4lessIlESaIS8_EE14_M_create_nodeERKS8_
00000000000bc822 W _ZNSt8_Rb_treeIlSt4pairIKlNSt7__cxx1112basic_stringIcSt11char_traitsIcESaIcEEEESt10_Select1stIS8_ESt4lessIlESaIS8_EE14_M_lower_boundEPSt13_Rb_tree_nodeIS8_EPSt18_Rb_tree_node_baseRS1_
00000000000bcd8e W _ZNSt8_Rb_treeIlSt4pairIKlNSt7__cxx1112basic_stringIcSt11char_traitsIcESaIcEEEESt10_Select1stIS8_ESt4lessIlESaIS8_EE14_M_upper_boundEPSt13_Rb_tree_nodeIS8_EPSt18_Rb_tree_node_baseRS1_
00000000000bbcee W _ZNSt8_Rb_treeIlSt4pairIKlNSt7__cxx1112basic_stringIcSt11char_traitsIcESaIcEEEESt10_Select1stIS8_ESt4lessIlESaIS8_EE15_M_destroy_nodeEPSt13_Rb_tree_nodeIS8_E
00000000000c43b8 W _ZNSt8_Rb_treeIlSt4pairIKlNSt7__cxx1112basic_stringIcSt11char_traitsIcESaIcEEEESt10_Select1stIS8_ESt4lessIlESaIS8_EE17_M_construct_nodeEPSt13_Rb_tree_nodeIS8_ERKS8_
00000000000b994e W _ZNSt8_Rb_treeIlSt4pairIKlNSt7__cxx1112basic_stringIcSt11char_traitsIcESaIcEEEESt10_Select1stIS8_ESt4lessIlESaIS8_EE17_M_insert_unique_ESt23_Rb_tree_const_iteratorIS8_ERKS8_
00000000000bca62 W _ZNSt8_Rb_treeIlSt4pairIKlNSt7__cxx1112basic_stringIcSt11char_traitsIcESaIcEEEESt10_Select1stIS8_ESt4lessIlESaIS8_EE17_M_insert_unique_INSE_11_Alloc_nodeEEESt17_Rb_tree_iteratorIS8_ESt23_Rb_tree_const_iteratorIS8_ERKS8_RT_
00000000000c4072 W _ZNSt8_Rb_treeIlSt4pairIKlNSt7__cxx1112basic_stringIcSt11char_traitsIcESaIcEEEESt10_Select1stIS8_ESt4lessIlESaIS8_EE20_Reuse_or_alloc_node10_M_extractEv
00000000000b8c42 W _ZNSt8_Rb_treeIlSt4pairIKlNSt7__cxx1112basic_stringIcSt11char_traitsIcESaIcEEEESt10_Select1stIS8_ESt4lessIlESaIS8_EE20_Reuse_or_alloc_nodeC1ERSE_
00000000000b8c42 W _ZNSt8_Rb_treeIlSt4pairIKlNSt7__cxx1112basic_stringIcSt11char_traitsIcESaIcEEEESt10_Select1stIS8_ESt4lessIlESaIS8_EE20_Reuse_or_alloc_nodeC2ERSE_
00000000000b8e34 W _ZNSt8_Rb_treeIlSt4pairIKlNSt7__cxx1112basic_stringIcSt11char_traitsIcESaIcEEEESt10_Select1stIS8_ESt4lessIlESaIS8_EE20_Reuse_or_alloc_nodeD1Ev
00000000000b8e34 W _ZNSt8_Rb_treeIlSt4pairIKlNSt7__cxx1112basic_stringIcSt11char_traitsIcESaIcEEEESt10_Select1stIS8_ESt4lessIlESaIS8_EE20_Reuse_or_alloc_nodeD2Ev
00000000000c1fc4 W _ZNSt8_Rb_treeIlSt4pairIKlNSt7__cxx1112basic_stringIcSt11char_traitsIcESaIcEEEESt10_Select1stIS8_ESt4lessIlESaIS8_EE20_Reuse_or_alloc_nodeclIS8_EEPSt13_Rb_tree_nodeIS8_ERKT_
00000000000be726 W _ZNSt8_Rb_treeIlSt4pairIKlNSt7__cxx1112basic_stringIcSt11char_traitsIcESaIcEEEESt10_Select1stIS8_ESt4lessIlESaIS8_EE21_M_get_Node_allocatorEv
00000000000c24dc W _ZNSt8_Rb_treeIlSt4pairIKlNSt7__cxx1112basic_stringIcSt11char_traitsIcESaIcEEEESt10_Select1stIS8_ESt4lessIlESaIS8_EE24_M_get_insert_unique_posERS1_
00000000000beed2 W _ZNSt8_Rb_treeIlSt4pairIKlNSt7__cxx1112basic_stringIcSt11char_traitsIcESaIcEEEESt10_Select1stIS8_ESt4lessIlESaIS8_EE29_M_get_insert_hint_unique_posESt23_Rb_tree_const_iteratorIS8_ERS1_
00000000000b97ac W _ZNSt8_Rb_treeIlSt4pairIKlNSt7__cxx1112basic_stringIcSt11char_traitsIcESaIcEEEESt10_Select1stIS8_ESt4lessIlESaIS8_EE3endEv
00000000000bcff6 W _ZNSt8_Rb_treeIlSt4pairIKlNSt7__cxx1112basic_stringIcSt11char_traitsIcESaIcEEEESt10_Select1stIS8_ESt4lessIlESaIS8_EE5beginEv
00000000000b6a30 W _ZNSt8_Rb_treeIlSt4pairIKlNSt7__cxx1112basic_stringIcSt11char_traitsIcESaIcEEEESt10_Select1stIS8_ESt4lessIlESaIS8_EE5clearEv
00000000000b6d3a W _ZNSt8_Rb_treeIlSt4pairIKlNSt7__cxx1112basic_stringIcSt11char_traitsIcESaIcEEEESt10_Select1stIS8_ESt4lessIlESaIS8_EE5eraseERS1_
00000000000bc086 W _ZNSt8_Rb_treeIlSt4pairIKlNSt7__cxx1112basic_stringIcSt11char_traitsIcESaIcEEEESt10_Select1stIS8_ESt4lessIlESaIS8_EE6_M_endEv
00000000000bcc95 W _ZNSt8_Rb_treeIlSt4pairIKlNSt7__cxx1112basic_stringIcSt11char_traitsIcESaIcEEEESt10_Select1stIS8_ESt4lessIlESaIS8_EE6_S_keyEPKSt13_Rb_tree_nodeIS8_E
00000000000c23e3 W _ZNSt8_Rb_treeIlSt4pairIKlNSt7__cxx1112basic_stringIcSt11char_traitsIcESaIcEEEESt10_Select1stIS8_ESt4lessIlESaIS8_EE6_S_keyEPKSt18_Rb_tree_node_base
00000000000bc098 W _ZNSt8_Rb_treeIlSt4pairIKlNSt7__cxx1112basic_stringIcSt11char_traitsIcESaIcEEEESt10_Select1stIS8_ESt4lessIlESaIS8_EE7_M_copyINSE_20_Reuse_or_alloc_nodeEEEPSt13_Rb_tree_nodeIS8_EPKSI_PSt18_Rb_tree_node_baseRT_
00000000000b8ef2 W _ZNSt8_Rb_treeIlSt4pairIKlNSt7__cxx1112basic_stringIcSt11char_traitsIcESaIcEEEESt10_Select1stIS8_ESt4lessIlESaIS8_EE7_M_copyINSE_20_Reuse_or_alloc_nodeEEEPSt13_Rb_tree_nodeIS8_ERKSE_RT_
00000000000b8ee0 W _ZNSt8_Rb_treeIlSt4pairIKlNSt7__cxx1112basic_stringIcSt11char_traitsIcESaIcEEEESt10_Select1stIS8_ESt4lessIlESaIS8_EE7_M_rootEv
00000000000be920 W _ZNSt8_Rb_treeIlSt4pairIKlNSt7__cxx1112basic_stringIcSt11char_traitsIcESaIcEEEESt10_Select1stIS8_ESt4lessIlESaIS8_EE7_S_leftEPKSt18_Rb_tree_node_base
00000000000b8ad8 W _ZNSt8_Rb_treeIlSt4pairIKlNSt7__cxx1112basic_stringIcSt11char_traitsIcESaIcEEEESt10_Select1stIS8_ESt4lessIlESaIS8_EE7_S_leftEPSt18_Rb_tree_node_base
00000000000b5f02 W _ZNSt8_Rb_treeIlSt4pairIKlNSt7__cxx1112basic_stringIcSt11char_traitsIcESaIcEEEESt10_Select1stIS8_ESt4lessIlESaIS8_EE8_M_beginEv
00000000000b5e9c W _ZNSt8_Rb_treeIlSt4pairIKlNSt7__cxx1112basic_stringIcSt11char_traitsIcESaIcEEEESt10_Select1stIS8_ESt4lessIlESaIS8_EE8_M_eraseEPSt13_Rb_tree_nodeIS8_E
00000000000be8e5 W _ZNSt8_Rb_treeIlSt4pairIKlNSt7__cxx1112basic_stringIcSt11char_traitsIcESaIcEEEESt10_Select1stIS8_ESt4lessIlESaIS8_EE8_S_rightEPKSt18_Rb_tree_node_base
00000000000b8a9d W _ZNSt8_Rb_treeIlSt4pairIKlNSt7__cxx1112basic_stringIcSt11char_traitsIcESaIcEEEESt10_Select1stIS8_ESt4lessIlESaIS8_EE8_S_rightEPSt18_Rb_tree_node_base
00000000000bfd6b W _ZNSt8_Rb_treeIlSt4pairIKlNSt7__cxx1112basic_stringIcSt11char_traitsIcESaIcEEEESt10_Select1stIS8_ESt4lessIlESaIS8_EE8_S_valueEPKSt13_Rb_tree_nodeIS8_E
00000000000c4909 W _ZNSt8_Rb_treeIlSt4pairIKlNSt7__cxx1112basic_stringIcSt11char_traitsIcESaIcEEEESt10_Select1stIS8_ESt4lessIlESaIS8_EE8_S_valueEPKSt18_Rb_tree_node_base
00000000000b5e64 W _ZNSt8_Rb_treeIlSt4pairIKlNSt7__cxx1112basic_stringIcSt11char_traitsIcESaIcEEEESt10_Select1stIS8_ESt4lessIlESaIS8_EEC1Ev
00000000000b5e64 W _ZNSt8_Rb_treeIlSt4pairIKlNSt7__cxx1112basic_stringIcSt11char_traitsIcESaIcEEEESt10_Select1stIS8_ESt4lessIlESaIS8_EEC2Ev
00000000000b3d06 W _ZNSt8_Rb_treeIlSt4pairIKlNSt7__cxx1112basic_stringIcSt11char_traitsIcESaIcEEEESt10_Select1stIS8_ESt4lessIlESaIS8_EED1Ev
00000000000b3d06 W _ZNSt8_Rb_treeIlSt4pairIKlNSt7__cxx1112basic_stringIcSt11char_traitsIcESaIcEEEESt10_Select1stIS8_ESt4lessIlESaIS8_EED2Ev
00000000000b6018 W _ZNSt8_Rb_treeIlSt4pairIKlNSt7__cxx1112basic_stringIcSt11char_traitsIcESaIcEEEESt10_Select1stIS8_ESt4lessIlESaIS8_EEaSERKSE_
0000000000034f5e W _ZNSt8_Rb_treeIlSt4pairIKlP6ServerESt10_Select1stIS4_ESt4lessIlESaIS4_EE10_M_insert_INSA_11_Alloc_nodeEEESt17_Rb_tree_iteratorIS4_EPSt18_Rb_tree_node_baseSG_RKS4_RT_
0000000000034f1e W _ZNSt8_Rb_treeIlSt4pairIKlP6ServerESt10_Select1stIS4_ESt4lessIlESaIS4_EE11_Alloc_nodeC1ERSA_
0000000000034f1e W _ZNSt8_Rb_treeIlSt4pairIKlP6ServerESt10_Select1stIS4_ESt4lessIlESaIS4_EE11_Alloc_nodeC2ERSA_
000000000003aef8 W _ZNSt8_Rb_treeIlSt4pairIKlP6ServerESt10_Select1stIS4_ESt4lessIlESaIS4_EE11_M_get_nodeEv
000000000003b1cc W _ZNSt8_Rb_treeIlSt4pairIKlP6ServerESt10_Select1stIS4_ESt4lessIlESaIS4_EE11_M_leftmostEv
0000000000037280 W _ZNSt8_Rb_treeIlSt4pairIKlP6ServerESt10_Select1stIS4_ESt4lessIlESaIS4_EE11_M_put_nodeEPSt13_Rb_tree_nodeIS4_E
000000000003574e W _ZNSt8_Rb_treeIlSt4pairIKlP6ServerESt10_Select1stIS4_ESt4lessIlESaIS4_EE11equal_rangeERS1_
000000000003534c W _ZNSt8_Rb_treeIlSt4pairIKlP6ServerESt10_Select1stIS4_ESt4lessIlESaIS4_EE11lower_boundERS1_
000000000003428c W _ZNSt8_Rb_treeIlSt4pairIKlP6ServerESt10_Select1stIS4_ESt4lessIlESaIS4_EE12_M_drop_nodeEPSt13_Rb_tree_nodeIS4_E
0000000000038352 W _ZNSt8_Rb_treeIlSt4pairIKlP6ServerESt10_Select1stIS4_ESt4lessIlESaIS4_EE12_M_erase_auxESt23_Rb_tree_const_iteratorIS4_E
0000000000035be4 W _ZNSt8_Rb_treeIlSt4pairIKlP6ServerESt10_Select1stIS4_ESt4lessIlESaIS4_EE12_M_erase_auxESt23_Rb_tree_const_iteratorIS4_ESC_
000000000003b1ba W _ZNSt8_Rb_treeIlSt4pairIKlP6ServerESt10_Select1stIS4_ESt4lessIlESaIS4_EE12_M_rightmostEv
00000000000341d2 W _ZNSt8_Rb_treeIlSt4pairIKlP6ServerESt10_Select1stIS4_ESt4lessIlESaIS4_EE13_Rb_tree_implIS8_Lb0EEC1Ev
00000000000341d2 W _ZNSt8_Rb_treeIlSt4pairIKlP6ServerESt10_Select1stIS4_ESt4lessIlESaIS4_EE13_Rb_tree_implIS8_Lb0EEC2Ev
000000000002f30c W _ZNSt8_Rb_treeIlSt4pairIKlP6ServerESt10_Select1stIS4_ESt4lessIlESaIS4_EE13_Rb_tree_implIS8_Lb0EED1Ev
000000000002f30c W _ZNSt8_Rb_treeIlSt4pairIKlP6ServerESt10_Select1stIS4_ESt4lessIlESaIS4_EE13_Rb_tree_implIS8_Lb0EED2Ev
00000000000391a8 W _ZNSt8_Rb_treeIlSt4pairIKlP6ServerESt10_Select1stIS4_ESt4lessIlESaIS4_EE14_M_create_nodeERKS4_
0000000000037886 W _ZNSt8_Rb_treeIlSt4pairIKlP6ServerESt10_Select1stIS4_ESt4lessIlESaIS4_EE14_M_lower_boundEPSt13_Rb_tree_nodeIS4_EPSt18_Rb_tree_node_baseRS1_
0000000000037e5e W _ZNSt8_Rb_treeIlSt4pairIKlP6ServerESt10_Select1stIS4_ESt4lessIlESaIS4_EE14_M_upper_boundEPSt13_Rb_tree_nodeIS4_EPSt18_Rb_tree_node_baseRS1_
000000000003712e W _ZNSt8_Rb_treeIlSt4pairIKlP6ServerESt10_Select1stIS4_ESt4lessIlESaIS4_EE15_M_destroy_nodeEPSt13_Rb_tree_nodeIS4_E
0000000000031f50 W _ZNSt8_Rb_treeIlSt4pairIKlP6ServerESt10_Select1stIS4_ESt4lessIlESaIS4_EE16_M_insert_uniqueERKS4_
000000000003af20 W _ZNSt8_Rb_treeIlSt4pairIKlP6ServerESt10_Select1stIS4_ESt4lessIlESaIS4_EE17_M_construct_nodeEPSt13_Rb_tree_nodeIS4_ERKS4_
0000000000035406 W _ZNSt8_Rb_treeIlSt4pairIKlP6ServerESt10_Select1stIS4_ESt4lessIlESaIS4_EE17_M_insert_unique_ESt23_Rb_tree_const_iteratorIS4_ERKS4_
0000000000037a38 W _ZNSt8_Rb_treeIlSt4pairIKlP6ServerESt10_Select1stIS4_ESt4lessIlESaIS4_EE17_M_insert_unique_INSA_11_Alloc_nodeEEESt17_Rb_tree_iteratorIS4_ESt23_Rb_tree_const_iteratorIS4_ERKS4_RT_
0000000000038fe4 W _ZNSt8_Rb_treeIlSt4pairIKlP6ServerESt10_Select1stIS4_ESt4lessIlESaIS4_EE21_M_get_Node_allocatorEv
000000000003488e W _ZNSt8_Rb_treeIlSt4pairIKlP6ServerESt10_Select1stIS4_ESt4lessIlESaIS4_EE24_M_get_insert_unique_posERS1_
00000000000391e6 W _ZNSt8_Rb_treeIlSt4pairIKlP6ServerESt10_Select1stIS4_ESt4lessIlESaIS4_EE29_M_get_insert_hint_unique_posESt23_Rb_tree_const_iteratorIS4_ERS1_
0000000000032e96 W _ZNSt8_Rb_treeIlSt4pairIKlP6ServerESt10_Select1stIS4_ESt4lessIlESaIS4_EE3endEv
0000000000032d58 W _ZNSt8_Rb_treeIlSt4pairIKlP6ServerESt10_Select1stIS4_ESt4lessIlESaIS4_EE5beginEv
0000000000033f4e W _ZNSt8_Rb_treeIlSt4pairIKlP6ServerESt10_Select1stIS4_ESt4lessIlESaIS4_EE5clearEv
0000000000032ad6 W _ZNSt8_Rb_treeIlSt4pairIKlP6ServerESt10_Select1stIS4_ESt4lessIlESaIS4_EE5eraseERS1_
00000000000375cc W _ZNSt8_Rb_treeIlSt4pairIKlP6ServerESt10_Select1stIS4_ESt4lessIlESaIS4_EE6_M_endEv
00000000000375de W _ZNSt8_Rb_treeIlSt4pairIKlP6ServerESt10_Select1stIS4_ESt4lessIlESaIS4_EE6_S_keyEPKSt13_Rb_tree_nodeIS4_E
0000000000037743 W _ZNSt8_Rb_treeIlSt4pairIKlP6ServerESt10_Select1stIS4_ESt4lessIlESaIS4_EE6_S_keyEPKSt18_Rb_tree_node_base
0000000000034250 W _ZNSt8_Rb_treeIlSt4pairIKlP6ServerESt10_Select1stIS4_ESt4lessIlESaIS4_EE7_S_leftEPSt18_Rb_tree_node_base
00000000000315fc W _ZNSt8_Rb_treeIlSt4pairIKlP6ServerESt10_Select1stIS4_ESt4lessIlESaIS4_EE8_M_beginEv
0000000000031596 W _ZNSt8_Rb_treeIlSt4pairIKlP6ServerESt10_Select1stIS4_ESt4lessIlESaIS4_EE8_M_eraseEPSt13_Rb_tree_nodeIS4_E
0000000000034215 W _ZNSt8_Rb_treeIlSt4pairIKlP6ServerESt10_Select1stIS4_ESt4lessIlESaIS4_EE8_S_rightEPSt18_Rb_tree_node_base
0000000000039174 W _ZNSt8_Rb_treeIlSt4pairIKlP6ServerESt10_Select1stIS4_ESt4lessIlESaIS4_EE8_S_valueEPKSt13_Rb_tree_nodeIS4_E
000000000003918e W _ZNSt8_Rb_treeIlSt4pairIKlP6ServerESt10_Select1stIS4_ESt4lessIlESaIS4_EE8_S_valueEPKSt18_Rb_tree_node_base
000000000003155e W _ZNSt8_Rb_treeIlSt4pairIKlP6ServerESt10_Select1stIS4_ESt4lessIlESaIS4_EEC1Ev
000000000003155e W _ZNSt8_Rb_treeIlSt4pairIKlP6ServerESt10_Select1stIS4_ESt4lessIlESaIS4_EEC2Ev
000000000002f328 W _ZNSt8_Rb_treeIlSt4pairIKlP6ServerESt10_Select1stIS4_ESt4lessIlESaIS4_EED1Ev
000000000002f328 W _ZNSt8_Rb_treeIlSt4pairIKlP6ServerESt10_Select1stIS4_ESt4lessIlESaIS4_EED2Ev
000000000003aa9c W _ZNSt8_Rb_treeIlSt4pairIKllESt10_Select1stIS2_ESt4lessIlESaIS2_EE10_M_insert_INS8_11_Alloc_nodeEEESt17_Rb_tree_iteratorIS2_EPSt18_Rb_tree_node_baseSE_RKS2_RT_
0000000000038c7e W _ZNSt8_Rb_treeIlSt4pairIKllESt10_Select1stIS2_ESt4lessIlESaIS2_EE11_Alloc_nodeC1ERS8_
0000000000038c7e W _ZNSt8_Rb_treeIlSt4pairIKllESt10_Select1stIS2_ESt4lessIlESaIS2_EE11_Alloc_nodeC2ERS8_
000000000003be80 W _ZNSt8_Rb_treeIlSt4pairIKllESt10_Select1stIS2_ESt4lessIlESaIS2_EE11_M_get_nodeEv
000000000003baca W _ZNSt8_Rb_treeIlSt4pairIKllESt10_Select1stIS2_ESt4lessIlESaIS2_EE11_M_leftmostEv
0000000000037488 W _ZNSt8_Rb_treeIlSt4pairIKllESt10_Select1stIS2_ESt4lessIlESaIS2_EE11_M_put_nodeEPSt13_Rb_tree_nodeIS2_E
00000000000366fa W _ZNSt8_Rb_treeIlSt4pairIKllESt10_Select1stIS2_ESt4lessIlESaIS2_EE11equal_rangeERS1_
0000000000036ee6 W _ZNSt8_Rb_treeIlSt4pairIKllESt10_Select1stIS2_ESt4lessIlESaIS2_EE11lower_boundERS1_
00000000000344a2 W _ZNSt8_Rb_treeIlSt4pairIKllESt10_Select1stIS2_ESt4lessIlESaIS2_EE12_M_drop_nodeEPSt13_Rb_tree_nodeIS2_E
000000000003665e W _ZNSt8_Rb_treeIlSt4pairIKllESt10_Select1stIS2_ESt4lessIlESaIS2_EE12_M_erase_auxESt23_Rb_tree_const_iteratorIS2_E
0000000000036b90 W _ZNSt8_Rb_treeIlSt4pairIKllESt10_Select1stIS2_ESt4lessIlESaIS2_EE12_M_erase_auxESt23_Rb_tree_const_iteratorIS2_ESA_
000000000003b43a W _ZNSt8_Rb_treeIlSt4pairIKllESt10_Select1stIS2_ESt4lessIlESaIS2_EE12_M_rightmostEv
00000000000343e8 W _ZNSt8_Rb_treeIlSt4pairIKllESt10_Select1stIS2_ESt4lessIlESaIS2_EE13_Rb_tree_implIS6_Lb0EEC1Ev
00000000000343e8 W _ZNSt8_Rb_treeIlSt4pairIKllESt10_Select1stIS2_ESt4lessIlESaIS2_EE13_Rb_tree_implIS6_Lb0EEC2Ev
000000000002f46c W _ZNSt8_Rb_treeIlSt4pairIKllESt10_Select1stIS2_ESt4lessIlESaIS2_EE13_Rb_tree_implIS6_Lb0EED1Ev
000000000002f46c W _ZNSt8_Rb_treeIlSt4pairIKllESt10_Select1stIS2_ESt4lessIlESaIS2_EE13_Rb_tree_implIS6_Lb0EED2Ev
000000000003bd8c W _ZNSt8_Rb_treeIlSt4pairIKllESt10_Select1stIS2_ESt4lessIlESaIS2_EE14_M_create_nodeERKS2_
0000000000035f5a W _ZNSt8_Rb_treeIlSt4pairIKllESt10_Select1stIS2_ESt4lessIlESaIS2_EE14_M_lower_boundEPSt13_Rb_tree_nodeIS2_EPSt18_Rb_tree_node_baseRS1_
0000000000038600 W _ZNSt8_Rb_treeIlSt4pairIKllESt10_Select1stIS2_ESt4lessIlESaIS2_EE14_M_upper_boundEPSt13_Rb_tree_nodeIS2_EPSt18_Rb_tree_node_baseRS1_
0000000000037336 W _ZNSt8_Rb_treeIlSt4pairIKllESt10_Select1stIS2_ESt4lessIlESaIS2_EE15_M_destroy_nodeEPSt13_Rb_tree_nodeIS2_E
000000000003bea8 W _ZNSt8_Rb_treeIlSt4pairIKllESt10_Select1stIS2_ESt4lessIlESaIS2_EE17_M_construct_nodeEPSt13_Rb_tree_nodeIS2_ERKS2_
0000000000036f5a W _ZNSt8_Rb_treeIlSt4pairIKllESt10_Select1stIS2_ESt4lessIlESaIS2_EE17_M_insert_unique_ESt23_Rb_tree_const_iteratorIS2_ERKS2_
0000000000038cbe W _ZNSt8_Rb_treeIlSt4pairIKllESt10_Select1stIS2_ESt4lessIlESaIS2_EE17_M_insert_unique_INS8_11_Alloc_nodeEEESt17_Rb_tree_iteratorIS2_ESt23_Rb_tree_const_iteratorIS2_ERKS2_RT_
00000000000390bc W _ZNSt8_Rb_treeIlSt4pairIKllESt10_Select1stIS2_ESt4lessIlESaIS2_EE21_M_get_Node_allocatorEv
000000000003b44c W _ZNSt8_Rb_treeIlSt4pairIKllESt10_Select1stIS2_ESt4lessIlESaIS2_EE24_M_get_insert_unique_posERS1_
0000000000039ee4 W _ZNSt8_Rb_treeIlSt4pairIKllESt10_Select1stIS2_ESt4lessIlESaIS2_EE29_M_get_insert_hint_unique_posESt23_Rb_tree_const_iteratorIS2_ERS1_
0000000000033802 W _ZNSt8_Rb_treeIlSt4pairIKllESt10_Select1stIS2_ESt4lessIlESaIS2_EE3endEv
0000000000032fca W _ZNSt8_Rb_treeIlSt4pairIKllESt10_Select1stIS2_ESt4lessIlESaIS2_EE4findERS1_
0000000000038868 W _ZNSt8_Rb_treeIlSt4pairIKllESt10_Select1stIS2_ESt4lessIlESaIS2_EE5beginEv
0000000000038a0e W _ZNSt8_Rb_treeIlSt4pairIKllESt10_Select1stIS2_ESt4lessIlESaIS2_EE5clearEv
0000000000033a44 W _ZNSt8_Rb_treeIlSt4pairIKllESt10_Select1stIS2_ESt4lessIlESaIS2_EE5eraseERS1_
0000000000033918 W _ZNSt8_Rb_treeIlSt4pairIKllESt10_Select1stIS2_ESt4lessIlESaIS2_EE5eraseESt17_Rb_tree_iteratorIS2_E
0000000000035f48 W _ZNSt8_Rb_treeIlSt4pairIKllESt10_Select1stIS2_ESt4lessIlESaIS2_EE6_M_endEv
00000000000383ed W _ZNSt8_Rb_treeIlSt4pairIKllESt10_Select1stIS2_ESt4lessIlESaIS2_EE6_S_keyEPKSt13_Rb_tree_nodeIS2_E
000000000003610b W _ZNSt8_Rb_treeIlSt4pairIKllESt10_Select1stIS2_ESt4lessIlESaIS2_EE6_S_keyEPKSt18_Rb_tree_node_base
0000000000034466 W _ZNSt8_Rb_treeIlSt4pairIKllESt10_Select1stIS2_ESt4lessIlESaIS2_EE7_S_leftEPSt18_Rb_tree_node_base
0000000000031800 W _ZNSt8_Rb_treeIlSt4pairIKllESt10_Select1stIS2_ESt4lessIlESaIS2_EE8_M_beginEv
000000000003179a W _ZNSt8_Rb_treeIlSt4pairIKllESt10_Select1stIS2_ESt4lessIlESaIS2_EE8_M_eraseEPSt13_Rb_tree_nodeIS2_E
000000000003442b W _ZNSt8_Rb_treeIlSt4pairIKllESt10_Select1stIS2_ESt4lessIlESaIS2_EE8_S_rightEPSt18_Rb_tree_node_base
0000000000039e0c W _ZNSt8_Rb_treeIlSt4pairIKllESt10_Select1stIS2_ESt4lessIlESaIS2_EE8_S_valueEPKSt13_Rb_tree_nodeIS2_E
00000000000384e5 W _ZNSt8_Rb_treeIlSt4pairIKllESt10_Select1stIS2_ESt4lessIlESaIS2_EE8_S_valueEPKSt18_Rb_tree_node_base
0000000000031762 W _ZNSt8_Rb_treeIlSt4pairIKllESt10_Select1stIS2_ESt4lessIlESaIS2_EEC1Ev
0000000000031762 W _ZNSt8_Rb_treeIlSt4pairIKllESt10_Select1stIS2_ESt4lessIlESaIS2_EEC2Ev
000000000002f488 W _ZNSt8_Rb_treeIlSt4pairIKllESt10_Select1stIS2_ESt4lessIlESaIS2_EED1Ev
000000000002f488 W _ZNSt8_Rb_treeIlSt4pairIKllESt10_Select1stIS2_ESt4lessIlESaIS2_EED2Ev
00000000000c0c92 W _ZNSt8_Rb_treeIlSt4pairIKlmESt10_Select1stIS2_ESt4lessIlESaIS2_EE10_M_insert_INS8_11_Alloc_nodeEEESt17_Rb_tree_iteratorIS2_EPSt18_Rb_tree_node_baseSE_RKS2_RT_
00000000000bd748 W _ZNSt8_Rb_treeIlSt4pairIKlmESt10_Select1stIS2_ESt4lessIlESaIS2_EE11_Alloc_nodeC1ERS8_
00000000000bd748 W _ZNSt8_Rb_treeIlSt4pairIKlmESt10_Select1stIS2_ESt4lessIlESaIS2_EE11_Alloc_nodeC2ERS8_
00000000000c4bfe W _ZNSt8_Rb_treeIlSt4pairIKlmESt10_Select1stIS2_ESt4lessIlESaIS2_EE11_M_get_nodeEv
00000000000c35d8 W _ZNSt8_Rb_treeIlSt4pairIKlmESt10_Select1stIS2_ESt4lessIlESaIS2_EE11_M_leftmostEv
00000000000bc002 W _ZNSt8_Rb_treeIlSt4pairIKlmESt10_Select1stIS2_ESt4lessIlESaIS2_EE11_M_put_nodeEPSt13_Rb_tree_nodeIS2_E
00000000000bac78 W _ZNSt8_Rb_treeIlSt4pairIKlmESt10_Select1stIS2_ESt4lessIlESaIS2_EE11equal_rangeERS1_
00000000000baa84 W _ZNSt8_Rb_treeIlSt4pairIKlmESt10_Select1stIS2_ESt4lessIlESaIS2_EE11lower_boundERS1_
00000000000b8c08 W _ZNSt8_Rb_treeIlSt4pairIKlmESt10_Select1stIS2_ESt4lessIlESaIS2_EE12_M_drop_nodeEPSt13_Rb_tree_nodeIS2_E
00000000000be02c W _ZNSt8_Rb_treeIlSt4pairIKlmESt10_Select1stIS2_ESt4lessIlESaIS2_EE12_M_erase_auxESt23_Rb_tree_const_iteratorIS2_E
00000000000bb10e W _ZNSt8_Rb_treeIlSt4pairIKlmESt10_Select1stIS2_ESt4lessIlESaIS2_EE12_M_erase_auxESt23_Rb_tree_const_iteratorIS2_ESA_
00000000000c2f48 W _ZNSt8_Rb_treeIlSt4pairIKlmESt10_Select1stIS2_ESt4lessIlESaIS2_EE12_M_rightmostEv
00000000000b8b4e W _ZNSt8_Rb_treeIlSt4pairIKlmESt10_Select1stIS2_ESt4lessIlESaIS2_EE13_Rb_tree_implIS6_Lb0EEC1Ev
00000000000b8b4e W _ZNSt8_Rb_treeIlSt4pairIKlmESt10_Select1stIS2_ESt4lessIlESaIS2_EE13_Rb_tree_implIS6_Lb0EEC2Ev
00000000000b3d7e W _ZNSt8_Rb_treeIlSt4pairIKlmESt10_Select1stIS2_ESt4lessIlESaIS2_EE13_Rb_tree_implIS6_Lb0EED1Ev
00000000000b3d7e W _ZNSt8_Rb_treeIlSt4pairIKlmESt10_Select1stIS2_ESt4lessIlESaIS2_EE13_Rb_tree_implIS6_Lb0EED2Ev
00000000000c4924 W _ZNSt8_Rb_treeIlSt4pairIKlmESt10_Select1stIS2_ESt4lessIlESaIS2_EE14_M_create_nodeERKS2_
00000000000ba268 W _ZNSt8_Rb_treeIlSt4pairIKlmESt10_Select1stIS2_ESt4lessIlESaIS2_EE14_M_lower_boundEPSt13_Rb_tree_nodeIS2_EPSt18_Rb_tree_node_baseRS1_
00000000000bd9bc W _ZNSt8_Rb_treeIlSt4pairIKlmESt10_Select1stIS2_ESt4lessIlESaIS2_EE14_M_upper_boundEPSt13_Rb_tree_nodeIS2_EPSt18_Rb_tree_node_baseRS1_
00000000000bbeb0 W _ZNSt8_Rb_treeIlSt4pairIKlmESt10_Select1stIS2_ESt4lessIlESaIS2_EE15_M_destroy_nodeEPSt13_Rb_tree_nodeIS2_E
00000000000c4c26 W _ZNSt8_Rb_treeIlSt4pairIKlmESt10_Select1stIS2_ESt4lessIlESaIS2_EE17_M_construct_nodeEPSt13_Rb_tree_nodeIS2_ERKS2_
00000000000bab5c W _ZNSt8_Rb_treeIlSt4pairIKlmESt10_Select1stIS2_ESt4lessIlESaIS2_EE17_M_insert_unique_ESt23_Rb_tree_const_iteratorIS2_ERKS2_
00000000000bd788 W _ZNSt8_Rb_treeIlSt4pairIKlmESt10_Select1stIS2_ESt4lessIlESaIS2_EE17_M_insert_unique_INS8_11_Alloc_nodeEEESt17_Rb_tree_iteratorIS2_ESt23_Rb_tree_const_iteratorIS2_ERKS2_RT_
00000000000be7ce W _ZNSt8_Rb_treeIlSt4pairIKlmESt10_Select1stIS2_ESt4lessIlESaIS2_EE21_M_get_Node_allocatorEv
00000000000c2f5a W _ZNSt8_Rb_treeIlSt4pairIKlmESt10_Select1stIS2_ESt4lessIlESaIS2_EE24_M_get_insert_unique_posERS1_
00000000000c00da W _ZNSt8_Rb_treeIlSt4pairIKlmESt10_Select1stIS2_ESt4lessIlESaIS2_EE29_M_get_insert_hint_unique_posESt23_Rb_tree_const_iteratorIS2_ERS1_
00000000000b723e W _ZNSt8_Rb_treeIlSt4pairIKlmESt10_Select1stIS2_ESt4lessIlESaIS2_EE3endEv
00000000000b6fbc W _ZNSt8_Rb_treeIlSt4pairIKlmESt10_Select1stIS2_ESt4lessIlESaIS2_EE4findERS1_
00000000000bdc24 W _ZNSt8_Rb_treeIlSt4pairIKlmESt10_Select1stIS2_ESt4lessIlESaIS2_EE5beginEv
00000000000bddca W _ZNSt8_Rb_treeIlSt4pairIKlmESt10_Select1stIS2_ESt4lessIlESaIS2_EE5clearEv
00000000000b7e24 W _ZNSt8_Rb_treeIlSt4pairIKlmESt10_Select1stIS2_ESt4lessIlESaIS2_EE5eraseERS1_
00000000000ba256 W _ZNSt8_Rb_treeIlSt4pairIKlmESt10_Select1stIS2_ESt4lessIlESaIS2_EE6_M_endEv
00000000000bd45b W _ZNSt8_Rb_treeIlSt4pairIKlmESt10_Select1stIS2_ESt4lessIlESaIS2_EE6_S_keyEPKSt13_Rb_tree_nodeIS2_E
00000000000ba419 W _ZNSt8_Rb_treeIlSt4pairIKlmESt10_Select1stIS2_ESt4lessIlESaIS2_EE6_S_keyEPKSt18_Rb_tree_node_base
00000000000b8bcc W _ZNSt8_Rb_treeIlSt4pairIKlmESt10_Select1stIS2_ESt4lessIlESaIS2_EE7_S_leftEPSt18_Rb_tree_node_base
00000000000b5fdc W _ZNSt8_Rb_treeIlSt4pairIKlmESt10_Select1stIS2_ESt4lessIlESaIS2_EE8_M_beginEv
00000000000b5f76 W _ZNSt8_Rb_treeIlSt4pairIKlmESt10_Select1stIS2_ESt4lessIlESaIS2_EE8_M_eraseEPSt13_Rb_tree_nodeIS2_E
00000000000b8b91 W _ZNSt8_Rb_treeIlSt4pairIKlmESt10_Select1stIS2_ESt4lessIlESaIS2_EE8_S_rightEPSt18_Rb_tree_node_base
00000000000bfd85 W _ZNSt8_Rb_treeIlSt4pairIKlmESt10_Select1stIS2_ESt4lessIlESaIS2_EE8_S_valueEPKSt13_Rb_tree_nodeIS2_E
00000000000bd553 W _ZNSt8_Rb_treeIlSt4pairIKlmESt10_Select1stIS2_ESt4lessIlESaIS2_EE8_S_valueEPKSt18_Rb_tree_node_base
00000000000b5f3e W _ZNSt8_Rb_treeIlSt4pairIKlmESt10_Select1stIS2_ESt4lessIlESaIS2_EEC1Ev
00000000000b5f3e W _ZNSt8_Rb_treeIlSt4pairIKlmESt10_Select1stIS2_ESt4lessIlESaIS2_EEC2Ev
00000000000b3d9a W _ZNSt8_Rb_treeIlSt4pairIKlmESt10_Select1stIS2_ESt4lessIlESaIS2_EED1Ev
00000000000b3d9a W _ZNSt8_Rb_treeIlSt4pairIKlmESt10_Select1stIS2_ESt4lessIlESaIS2_EED2Ev
                 U _ZNSt8ios_base4InitC1Ev@@GLIBCXX_3.4
                 U _ZNSt8ios_base4InitD1Ev@@GLIBCXX_3.4
00000000000cc31e W _ZNSt8ios_base4setfESt13_Ios_FmtflagsS0_
00000000000bed5e W _ZSt10_ConstructI19ServerConfigurationS0_EvPT_RKT0_
000000000005f3eb W _ZSt10_ConstructI5RouteS0_EvPT_RKT0_
000000000003bc19 W _ZSt10_ConstructI6ServerS0_EvPT_RKT0_
00000000000445a6 W _ZSt10_ConstructINSt7__cxx1112basic_stringIcSt11char_traitsIcESaIcEEES5_EvPT_RKT0_
00000000000cd3f7 W _ZSt10__fill_n_aIPimiEN9__gnu_cxx11__enable_ifIXsrSt11__is_scalarIT1_E7__valueET_E6__typeES6_T0_RKS4_
0000000000050b97 W _ZSt10__pop_heapIN9__gnu_cxx17__normal_iteratorIPNSt7__cxx1112basic_stringIcSt11char_traitsIcESaIcEEESt6vectorIS7_SaIS7_EEEENS0_5__ops15_Iter_comp_iterIPFbRKS7_SG_EEEEvT_SK_SK_RT0_
00000000000be653 W _ZSt11__addressofI19ServerConfigurationEPT_RS1_
000000000005ed41 W _ZSt11__addressofI5RouteEPT_RS1_
0000000000038f21 W _ZSt11__addressofI6ServerEPT_RS1_
000000000002a941 W _ZSt11__addressofIKSt4pairIKNSt7__cxx1112basic_stringIcSt11char_traitsIcESaIcEEES6_EEPT_RSA_
000000000004c6d5 W _ZSt11__addressofIKSt4pairIKfNSt7__cxx1112basic_stringIcSt11char_traitsIcESaIcEEEEEPT_RSA_
00000000000c403d W _ZSt11__addressofIKSt4pairIKi5RouteEEPT_RS5_
0000000000053e4a W _ZSt11__addressofIKSt4pairIKiNSt7__cxx1112basic_stringIcSt11char_traitsIcESaIcEEEEEPT_RSA_
00000000000c4063 W _ZSt11__addressofIKSt4pairIKlNSt7__cxx1112basic_stringIcSt11char_traitsIcESaIcEEEEEPT_RSA_
000000000003bc82 W _ZSt11__addressofIKSt4pairIKlP6ServerEEPT_RS6_
000000000003b2b0 W _ZSt11__addressofIKSt4pairIKllEEPT_RS4_
00000000000c2c7f W _ZSt11__addressofIKSt4pairIKlmEEPT_RS4_
000000000004442b W _ZSt11__addressofINSt7__cxx1112basic_stringIcSt11char_traitsIcESaIcEEEEPT_RS6_
0000000000028147 W _ZSt11__addressofISt4pairIKNSt7__cxx1112basic_stringIcSt11char_traitsIcESaIcEEES6_EEPT_RS9_
000000000004a105 W _ZSt11__addressofISt4pairIKfNSt7__cxx1112basic_stringIcSt11char_traitsIcESaIcEEEEEPT_RS9_
00000000000b895f W _ZSt11__addressofISt4pairIKi5RouteEEPT_RS4_
000000000005dcdb W _ZSt11__addressofISt4pairIKiNSt7__cxx1112basic_stringIcSt11char_traitsIcESaIcEEEEEPT_RS9_
00000000000bca13 W _ZSt11__addressofISt4pairIKlNSt7__cxx1112basic_stringIcSt11char_traitsIcESaIcEEEEEPT_RS9_
0000000000035f39 W _ZSt11__addressofISt4pairIKlP6ServerEEPT_RS5_
0000000000038c70 W _ZSt11__addressofISt4pairIKllEEPT_RS3_
00000000000bd739 W _ZSt11__addressofISt4pairIKlmEEPT_RS3_
000000000005074f W _ZSt11__make_heapIN9__gnu_cxx17__normal_iteratorIPNSt7__cxx1112basic_stringIcSt11char_traitsIcESaIcEEESt6vectorIS7_SaIS7_EEEENS0_5__ops15_Iter_comp_iterIPFbRKS7_SG_EEEEvT_SK_RT0_
00000000000517e3 W _ZSt11__push_heapIN9__gnu_cxx17__normal_iteratorIPNSt7__cxx1112basic_stringIcSt11char_traitsIcESaIcEEESt6vectorIS7_SaIS7_EEEElS7_NS0_5__ops14_Iter_comp_valIPFbRKS7_SG_EEEEvT_T0_SL_T1_RT2_
00000000000ccaa2 W _ZSt11__remove_ifIN9__gnu_cxx17__normal_iteratorIPcNSt7__cxx1112basic_stringIcSt11char_traitsIcESaIcEEEEENS0_5__ops16_Iter_equals_valIKcEEET_SE_SE_T0_
000000000004fe66 W _ZSt11__sort_heapIN9__gnu_cxx17__normal_iteratorIPNSt7__cxx1112basic_stringIcSt11char_traitsIcESaIcEEESt6vectorIS7_SaIS7_EEEENS0_5__ops15_Iter_comp_iterIPFbRKS7_SG_EEEEvT_SK_RT0_
00000000000b912a W _ZSt12__miter_baseIN9__gnu_cxx17__normal_iteratorIPK19ServerConfigurationSt6vectorIS2_SaIS2_EEEEET_S9_
000000000005d827 W _ZSt12__miter_baseIN9__gnu_cxx17__normal_iteratorIPK5RouteSt6vectorIS2_SaIS2_EEEEET_S9_
0000000000043a69 W _ZSt12__miter_baseIN9__gnu_cxx17__normal_iteratorIPKNSt7__cxx1112basic_stringIcSt11char_traitsIcESaIcEEESt6vectorIS7_SaIS7_EEEEET_SE_
000000000004f3c5 W _ZSt12__miter_baseIN9__gnu_cxx17__normal_iteratorIPNSt7__cxx1112basic_stringIcSt11char_traitsIcESaIcEEESt6vectorIS7_SaIS7_EEEEET_SD_
0000000000037c6b W _ZSt12__miter_baseIN9__gnu_cxx17__normal_iteratorIPiSt6vectorIiSaIiEEEEET_S7_
00000000000b9332 W _ZSt12__miter_baseIP19ServerConfigurationET_S2_
000000000005da2f W _ZSt12__miter_baseIP5RouteET_S2_
0000000000043c71 W _ZSt12__miter_baseIPNSt7__cxx1112basic_stringIcSt11char_traitsIcESaIcEEEET_S7_
000000000003be1a W _ZSt12__miter_baseIPiET_S1_
00000000000bc4d0 W _ZSt12__niter_baseIP19ServerConfigurationET_S2_
00000000000bc40e W _ZSt12__niter_baseIP19ServerConfigurationSt6vectorIS0_SaIS0_EEET_N9__gnu_cxx17__normal_iteratorIS5_T0_EE
000000000005e6f0 W _ZSt12__niter_baseIP5RouteET_S2_
000000000005e62e W _ZSt12__niter_baseIP5RouteSt6vectorIS0_SaIS0_EEET_N9__gnu_cxx17__normal_iteratorIS5_T0_EE
00000000000bc3d1 W _ZSt12__niter_baseIPK19ServerConfigurationSt6vectorIS0_SaIS0_EEET_N9__gnu_cxx17__normal_iteratorIS6_T0_EE
000000000005e5f1 W _ZSt12__niter_baseIPK5RouteSt6vectorIS0_SaIS0_EEET_N9__gnu_cxx17__normal_iteratorIS6_T0_EE
0000000000044153 W _ZSt12__niter_baseIPKNSt7__cxx1112basic_stringIcSt11char_traitsIcESaIcEEESt6vectorIS5_SaIS5_EEET_N9__gnu_cxx17__normal_iteratorISB_T0_EE
0000000000044252 W _ZSt12__niter_baseIPNSt7__cxx1112basic_stringIcSt11char_traitsIcESaIcEEEET_S7_
0000000000044190 W _ZSt12__niter_baseIPNSt7__cxx1112basic_stringIcSt11char_traitsIcESaIcEEESt6vectorIS5_SaIS5_EEET_N9__gnu_cxx17__normal_iteratorISA_T0_EE
000000000003c01c W _ZSt12__niter_baseIPiET_S1_
0000000000039d9e W _ZSt12__niter_baseIPiSt6vectorIiSaIiEEET_N9__gnu_cxx17__normal_iteratorIS4_T0_EE
000000000005112b W _ZSt13__adjust_heapIN9__gnu_cxx17__normal_iteratorIPNSt7__cxx1112basic_stringIcSt11char_traitsIcESaIcEEESt6vectorIS7_SaIS7_EEEElS7_NS0_5__ops15_Iter_comp_iterIPFbRKS7_SG_EEEEvT_T0_SL_T1_T2_
00000000000bc4de W _ZSt13__copy_move_aILb0EP19ServerConfigurationS1_ET1_T0_S3_S2_
000000000005e6fe W _ZSt13__copy_move_aILb0EP5RouteS1_ET1_T0_S3_S2_
00000000000bc44b W _ZSt13__copy_move_aILb0EPK19ServerConfigurationPS0_ET1_T0_S5_S4_
000000000005e66b W _ZSt13__copy_move_aILb0EPK5RoutePS0_ET1_T0_S5_S4_
00000000000441cd W _ZSt13__copy_move_aILb0EPKNSt7__cxx1112basic_stringIcSt11char_traitsIcESaIcEEEPS5_ET1_T0_SA_S9_
0000000000044260 W _ZSt13__copy_move_aILb0EPNSt7__cxx1112basic_stringIcSt11char_traitsIcESaIcEEES6_ET1_T0_S8_S7_
0000000000039ddb W _ZSt13__copy_move_aILb0EPiS0_ET1_T0_S2_S1_
000000000004fc9c W _ZSt13__heap_selectIN9__gnu_cxx17__normal_iteratorIPNSt7__cxx1112basic_stringIcSt11char_traitsIcESaIcEEESt6vectorIS7_SaIS7_EEEENS0_5__ops15_Iter_comp_iterIPFbRKS7_SG_EEEEvT_SK_SK_T0_
000000000005034b W _ZSt13copy_backwardIN9__gnu_cxx17__normal_iteratorIPNSt7__cxx1112basic_stringIcSt11char_traitsIcESaIcEEESt6vectorIS7_SaIS7_EEEESC_ET0_T_SE_SD_
00000000000b9138 W _ZSt14__copy_move_a2ILb0EN9__gnu_cxx17__normal_iteratorIPK19ServerConfigurationSt6vectorIS2_SaIS2_EEEENS1_IPS2_S7_EEET1_T0_SC_SB_
000000000005d835 W _ZSt14__copy_move_a2ILb0EN9__gnu_cxx17__normal_iteratorIPK5RouteSt6vectorIS2_SaIS2_EEEENS1_IPS2_S7_EEET1_T0_SC_SB_
0000000000043a77 W _ZSt14__copy_move_a2ILb0EN9__gnu_cxx17__normal_iteratorIPKNSt7__cxx1112basic_stringIcSt11char_traitsIcESaIcEEESt6vectorIS7_SaIS7_EEEENS1_IPS7_SC_EEET1_T0_SH_SG_
000000000004f3d3 W _ZSt14__copy_move_a2ILb0EN9__gnu_cxx17__normal_iteratorIPNSt7__cxx1112basic_stringIcSt11char_traitsIcESaIcEEESt6vectorIS7_SaIS7_EEEESC_ET1_T0_SE_SD_
0000000000037c79 W _ZSt14__copy_move_a2ILb0EN9__gnu_cxx17__normal_iteratorIPiSt6vectorIiSaIiEEEES6_ET1_T0_S8_S7_
00000000000b9340 W _ZSt14__copy_move_a2ILb0EP19ServerConfigurationS1_ET1_T0_S3_S2_
000000000005da3d W _ZSt14__copy_move_a2ILb0EP5RouteS1_ET1_T0_S3_S2_
0000000000043c7f W _ZSt14__copy_move_a2ILb0EPNSt7__cxx1112basic_stringIcSt11char_traitsIcESaIcEEES6_ET1_T0_S8_S7_
000000000003be28 W _ZSt14__copy_move_a2ILb0EPiS0_ET1_T0_S2_S1_
000000000004f5a7 W _ZSt14__partial_sortIN9__gnu_cxx17__normal_iteratorIPNSt7__cxx1112basic_stringIcSt11char_traitsIcESaIcEEESt6vectorIS7_SaIS7_EEEENS0_5__ops15_Iter_comp_iterIPFbRKS7_SG_EEEEvT_SK_SK_T0_
000000000004f7c5 W _ZSt16__insertion_sortIN9__gnu_cxx17__normal_iteratorIPNSt7__cxx1112basic_stringIcSt11char_traitsIcESaIcEEESt6vectorIS7_SaIS7_EEEENS0_5__ops15_Iter_comp_iterIPFbRKS7_SG_EEEEvT_SK_T0_
000000000004f131 W _ZSt16__introsort_loopIN9__gnu_cxx17__normal_iteratorIPNSt7__cxx1112basic_stringIcSt11char_traitsIcESaIcEEESt6vectorIS7_SaIS7_EEEElNS0_5__ops15_Iter_comp_iterIPFbRKS7_SG_EEEEvT_SK_T0_T1_
                 U _ZSt17__throw_bad_allocv@@GLIBCXX_3.4
                 U _ZSt18_Rb_tree_decrementPSt18_Rb_tree_node_base@@GLIBCXX_3.4
                 U _ZSt18_Rb_tree_incrementPKSt18_Rb_tree_node_base@@GLIBCXX_3.4
                 U _ZSt18_Rb_tree_incrementPSt18_Rb_tree_node_base@@GLIBCXX_3.4
00000000000bc37c W _ZSt18uninitialized_copyIN9__gnu_cxx17__normal_iteratorIPK19ServerConfigurationSt6vectorIS2_SaIS2_EEEEPS2_ET0_T_SB_SA_
000000000005e59c W _ZSt18uninitialized_copyIN9__gnu_cxx17__normal_iteratorIPK5RouteSt6vectorIS2_SaIS2_EEEEPS2_ET0_T_SB_SA_
0000000000043d08 W _ZSt18uninitialized_copyIN9__gnu_cxx17__normal_iteratorIPKNSt7__cxx1112basic_stringIcSt11char_traitsIcESaIcEEESt6vectorIS7_SaIS7_EEEEPS7_ET0_T_SG_SF_
00000000000b9398 W _ZSt18uninitialized_copyIP19ServerConfigurationS1_ET0_T_S3_S2_
000000000005da95 W _ZSt18uninitialized_copyIP5RouteS1_ET0_T_S3_S2_
0000000000039143 W _ZSt18uninitialized_copyIP6ServerS1_ET0_T_S3_S2_
0000000000043cd7 W _ZSt18uninitialized_copyIPNSt7__cxx1112basic_stringIcSt11char_traitsIcESaIcEEES6_ET0_T_S8_S7_
0000000000039eb3 W _ZSt18uninitialized_copyIPiS0_ET0_T_S2_S1_
00000000000cd1ab W _ZSt19__iterator_categoryIN9__gnu_cxx17__normal_iteratorIPcNSt7__cxx1112basic_stringIcSt11char_traitsIcESaIcEEEEEENSt15iterator_traitsIT_E17iterator_categoryERKSB_
                 U _ZSt20__throw_length_errorPKc@@GLIBCXX_3.4
00000000000cd361 W _ZSt20uninitialized_fill_nIPimiET_S1_T0_RKT1_
00000000000501a7 W _ZSt21__unguarded_partitionIN9__gnu_cxx17__normal_iteratorIPNSt7__cxx1112basic_stringIcSt11char_traitsIcESaIcEEESt6vectorIS7_SaIS7_EEEENS0_5__ops15_Iter_comp_iterIPFbRKS7_SG_EEEET_SK_SK_SK_T0_
000000000005174e W _ZSt22__copy_move_backward_aILb0EPNSt7__cxx1112basic_stringIcSt11char_traitsIcESaIcEEES6_ET1_T0_S8_S7_
000000000004f329 W _ZSt22__final_insertion_sortIN9__gnu_cxx17__normal_iteratorIPNSt7__cxx1112basic_stringIcSt11char_traitsIcESaIcEEESt6vectorIS7_SaIS7_EEEENS0_5__ops15_Iter_comp_iterIPFbRKS7_SG_EEEEvT_SK_T0_
000000000005007f W _ZSt22__move_median_to_firstIN9__gnu_cxx17__normal_iteratorIPNSt7__cxx1112basic_stringIcSt11char_traitsIcESaIcEEESt6vectorIS7_SaIS7_EEEENS0_5__ops15_Iter_comp_iterIPFbRKS7_SG_EEEEvT_SK_SK_SK_T0_
00000000000b90cb W _ZSt22__uninitialized_copy_aIN9__gnu_cxx17__normal_iteratorIPK19ServerConfigurationSt6vectorIS2_SaIS2_EEEEPS2_S2_ET0_T_SB_SA_RSaIT1_E
000000000005d765 W _ZSt22__uninitialized_copy_aIN9__gnu_cxx17__normal_iteratorIPK5RouteSt6vectorIS2_SaIS2_EEEEPS2_S2_ET0_T_SB_SA_RSaIT1_E
00000000000432d2 W _ZSt22__uninitialized_copy_aIN9__gnu_cxx17__normal_iteratorIPKNSt7__cxx1112basic_stringIcSt11char_traitsIcESaIcEEESt6vectorIS7_SaIS7_EEEEPS7_S7_ET0_T_SG_SF_RSaIT1_E
00000000000b683d W _ZSt22__uninitialized_copy_aIP19ServerConfigurationS1_S0_ET0_T_S3_S2_RSaIT1_E
000000000005c550 W _ZSt22__uninitialized_copy_aIP5RouteS1_S0_ET0_T_S3_S2_RSaIT1_E
000000000003757b W _ZSt22__uninitialized_copy_aIP6ServerS1_S0_ET0_T_S3_S2_RSaIT1_E
0000000000043293 W _ZSt22__uninitialized_copy_aIPNSt7__cxx1112basic_stringIcSt11char_traitsIcESaIcEEES6_S5_ET0_T_S8_S7_RSaIT1_E
00000000000385ce W _ZSt22__uninitialized_copy_aIPiS0_iET0_T_S2_S1_RSaIT1_E
0000000000050e93 W _ZSt23__copy_move_backward_a2ILb0EN9__gnu_cxx17__normal_iteratorIPNSt7__cxx1112basic_stringIcSt11char_traitsIcESaIcEEESt6vectorIS7_SaIS7_EEEESC_ET1_T0_SE_SD_
00000000000cd17a W _ZSt24__uninitialized_fill_n_aIPimiiET_S1_T0_RKT1_RSaIT2_E
00000000000504a9 W _ZSt25__unguarded_linear_insertIN9__gnu_cxx17__normal_iteratorIPNSt7__cxx1112basic_stringIcSt11char_traitsIcESaIcEEESt6vectorIS7_SaIS7_EEEENS0_5__ops14_Val_comp_iterIPFbRKS7_SG_EEEEvT_T0_
000000000004fb1e W _ZSt26__unguarded_insertion_sortIN9__gnu_cxx17__normal_iteratorIPNSt7__cxx1112basic_stringIcSt11char_traitsIcESaIcEEESt6vectorIS7_SaIS7_EEEENS0_5__ops15_Iter_comp_iterIPFbRKS7_SG_EEEEvT_SK_T0_
000000000004f5f1 W _ZSt27__unguarded_partition_pivotIN9__gnu_cxx17__normal_iteratorIPNSt7__cxx1112basic_stringIcSt11char_traitsIcESaIcEEESt6vectorIS7_SaIS7_EEEENS0_5__ops15_Iter_comp_iterIPFbRKS7_SG_EEEET_SK_SK_T0_
                 U _ZSt28_Rb_tree_rebalance_for_erasePSt18_Rb_tree_node_baseRS_@@GLIBCXX_3.4
                 U _ZSt29_Rb_tree_insert_and_rebalancebPSt18_Rb_tree_node_baseS0_RS_@@GLIBCXX_3.4
00000000000baa2b W _ZSt34__uninitialized_move_if_noexcept_aIP19ServerConfigurationS1_SaIS0_EET0_T_S4_S3_RT1_
000000000005e00c W _ZSt34__uninitialized_move_if_noexcept_aIP5RouteS1_SaIS0_EET0_T_S4_S3_RT1_
0000000000034835 W _ZSt34__uninitialized_move_if_noexcept_aIP6ServerS1_SaIS0_EET0_T_S4_S3_RT1_
000000000004404e W _ZSt34__uninitialized_move_if_noexcept_aIPNSt7__cxx1112basic_stringIcSt11char_traitsIcESaIcEEES6_SaIS5_EET0_T_S9_S8_RT1_
0000000000036587 W _ZSt34__uninitialized_move_if_noexcept_aIPiS0_SaIiEET0_T_S3_S2_RT1_
00000000000cc3b3 W _ZSt3hexRSt8ios_base
00000000000374e0 W _ZSt3maxImERKT_S2_S2_
000000000004ea6f W _ZSt4__lgl
00000000000b385a W _ZSt4ceilf
00000000000b677b W _ZSt4copyIN9__gnu_cxx17__normal_iteratorIPK19ServerConfigurationSt6vectorIS2_SaIS2_EEEENS1_IPS2_S7_EEET0_T_SC_SB_
000000000005c378 W _ZSt4copyIN9__gnu_cxx17__normal_iteratorIPK5RouteSt6vectorIS2_SaIS2_EEEENS1_IPS2_S7_EEET0_T_SC_SB_
00000000000431d1 W _ZSt4copyIN9__gnu_cxx17__normal_iteratorIPKNSt7__cxx1112basic_stringIcSt11char_traitsIcESaIcEEESt6vectorIS7_SaIS7_EEEENS1_IPS7_SC_EEET0_T_SH_SG_
000000000004f0a6 W _ZSt4copyIN9__gnu_cxx17__normal_iteratorIPNSt7__cxx1112basic_stringIcSt11char_traitsIcESaIcEEESt6vectorIS7_SaIS7_EEEESC_ET0_T_SE_SD_
00000000000356dc W _ZSt4copyIN9__gnu_cxx17__normal_iteratorIPiSt6vectorIiSaIiEEEES6_ET0_T_S8_S7_
00000000000b67f1 W _ZSt4copyIP19ServerConfigurationS1_ET0_T_S3_S2_
000000000005c504 W _ZSt4copyIP5RouteS1_ET0_T_S3_S2_
0000000000043247 W _ZSt4copyIPNSt7__cxx1112basic_stringIcSt11char_traitsIcESaIcEEES6_ET0_T_S8_S7_
000000000003bd3f W _ZSt4copyIPiS0_ET0_T_S2_S1_
000000000032f100 B _ZSt4cout@@GLIBCXX_3.4
                 U _ZSt4endlIcSt11char_traitsIcEERSt13basic_ostreamIT_T0_ES6_@@GLIBCXX_3.4
000000000004eab7 W _ZSt4sortIN9__gnu_cxx17__normal_iteratorIPNSt7__cxx1112basic_stringIcSt11char_traitsIcESaIcEEESt6vectorIS7_SaIS7_EEEEPFbRKS7_SE_EEvT_SH_T0_
0000000000051b68 W _ZSt4swapIcSt11char_traitsIcESaIcEEvRNSt7__cxx1112basic_stringIT_T0_T1_EES9_
000000000004ee6e W _ZSt6__sortIN9__gnu_cxx17__normal_iteratorIPNSt7__cxx1112basic_stringIcSt11char_traitsIcESaIcEEESt6vectorIS7_SaIS7_EEEENS0_5__ops15_Iter_comp_iterIPFbRKS7_SG_EEEEvT_SK_T0_
00000000000cd3bf W _ZSt6fill_nIPimiET_S1_T0_RKT1_
00000000000cc7f5 W _ZSt6removeIN9__gnu_cxx17__normal_iteratorIPcNSt7__cxx1112basic_stringIcSt11char_traitsIcESaIcEEEEEcET_SA_SA_RKT0_
                 U _ZSt7getlineIcSt11char_traitsIcESaIcEERSt13basic_istreamIT_T0_ES7_RNSt7__cxx1112basic_stringIS4_S5_T1_EE@@GLIBCXX_3.4.21
00000000000be661 W _ZSt8_DestroyI19ServerConfigurationEvPT_
000000000005ed4f W _ZSt8_DestroyI5RouteEvPT_
0000000000038f2f W _ZSt8_DestroyI6ServerEvPT_
00000000000b930c W _ZSt8_DestroyIN9__gnu_cxx17__normal_iteratorIP19ServerConfigurationSt6vectorIS2_SaIS2_EEEEEvT_S8_
00000000000b67c7 W _ZSt8_DestroyIN9__gnu_cxx17__normal_iteratorIP19ServerConfigurationSt6vectorIS2_SaIS2_EEEES2_EvT_S8_RSaIT0_E
000000000005da09 W _ZSt8_DestroyIN9__gnu_cxx17__normal_iteratorIP5RouteSt6vectorIS2_SaIS2_EEEEEvT_S8_
000000000005c4da W _ZSt8_DestroyIN9__gnu_cxx17__normal_iteratorIP5RouteSt6vectorIS2_SaIS2_EEEES2_EvT_S8_RSaIT0_E
0000000000043c4b W _ZSt8_DestroyIN9__gnu_cxx17__normal_iteratorIPNSt7__cxx1112basic_stringIcSt11char_traitsIcESaIcEEESt6vectorIS7_SaIS7_EEEEEvT_SD_
000000000004321d W _ZSt8_DestroyIN9__gnu_cxx17__normal_iteratorIPNSt7__cxx1112basic_stringIcSt11char_traitsIcESaIcEEESt6vectorIS7_SaIS7_EEEES7_EvT_SD_RSaIT0_E
0000000000044439 W _ZSt8_DestroyINSt7__cxx1112basic_stringIcSt11char_traitsIcESaIcEEEEvPT_
00000000000b8a33 W _ZSt8_DestroyIP19ServerConfigurationEvT_S2_
00000000000b5e3a W _ZSt8_DestroyIP19ServerConfigurationS0_EvT_S2_RSaIT0_E
000000000005d327 W _ZSt8_DestroyIP5RouteEvT_S2_
000000000005bec6 W _ZSt8_DestroyIP5RouteS0_EvT_S2_RSaIT0_E
00000000000341ab W _ZSt8_DestroyIP6ServerEvT_S2_
0000000000031534 W _ZSt8_DestroyIP6ServerS0_EvT_S2_RSaIT0_E
000000000004397d W _ZSt8_DestroyIPNSt7__cxx1112basic_stringIcSt11char_traitsIcESaIcEEEEvT_S7_
0000000000042d16 W _ZSt8_DestroyIPNSt7__cxx1112basic_stringIcSt11char_traitsIcESaIcEEES5_EvT_S7_RSaIT0_E
00000000000343c1 W _ZSt8_DestroyIPiEvT_S1_
0000000000031738 W _ZSt8_DestroyIPiiEvT_S1_RSaIT0_E
00000000000ccf39 W _ZSt9__find_ifIN9__gnu_cxx17__normal_iteratorIPcNSt7__cxx1112basic_stringIcSt11char_traitsIcESaIcEEEEENS0_5__ops16_Iter_equals_valIKcEEET_SE_SE_T0_
00000000000cd1b5 W _ZSt9__find_ifIN9__gnu_cxx17__normal_iteratorIPcNSt7__cxx1112basic_stringIcSt11char_traitsIcESaIcEEEEENS0_5__ops16_Iter_equals_valIKcEEET_SE_SE_T0_St26random_access_iterator_tag
0000000000050e6d W _ZSt9iter_swapIN9__gnu_cxx17__normal_iteratorIPNSt7__cxx1112basic_stringIcSt11char_traitsIcESaIcEEESt6vectorIS7_SaIS7_EEEESC_EvT_T0_
000000000002faea W _ZSt9make_pairIlP6ServerESt4pairIT_T0_ES3_S4_
000000000032f260 b _ZStL8__ioinit
000000000032f2a0 b _ZStL8__ioinit
000000000032f2e0 b _ZStL8__ioinit
000000000032f4c0 b _ZStL8__ioinit
000000000032f500 b _ZStL8__ioinit
000000000032f540 b _ZStL8__ioinit
000000000032f580 b _ZStL8__ioinit
000000000032f5c0 b _ZStL8__ioinit
000000000032f600 b _ZStL8__ioinit
000000000032f640 b _ZStL8__ioinit
000000000032f680 b _ZStL8__ioinit
000000000032f6c0 b _ZStL8__ioinit
000000000032f700 b _ZStL8__ioinit
000000000032f760 b _ZStL8__ioinit
00000000000cc280 W _ZStaNRSt13_Ios_FmtflagsS_
00000000000cc1b0 W _ZStanSt13_Ios_FmtflagsS_
00000000000cc1d4 W _ZStcoSt13_Ios_Fmtflags
00000000000424fc W _ZSteqIcEN9__gnu_cxx11__enable_ifIXsrSt9__is_charIT_E7__valueEbE6__typeERKNSt7__cxx1112basic_stringIS3_St11char_traitsIS3_ESaIS3_EEESE_
0000000000041e18 W _ZSteqIcSt11char_traitsIcESaIcEEbRKNSt7__cxx1112basic_stringIT_T0_T1_EEPKS5_
                 U _ZStlsISt11char_traitsIcEERSt13basic_ostreamIcT_ES5_PKc@@GLIBCXX_3.4
                 U _ZStlsIcSt11char_traitsIcESaIcEERSt13basic_ostreamIT_T0_ES7_RKNSt7__cxx1112basic_stringIS4_S5_T1_EE@@GLIBCXX_3.4.21
0000000000027f60 W _ZStltIcSt11char_traitsIcESaIcEEbRKNSt7__cxx1112basic_stringIT_T0_T1_EESA_
00000000000c6dcc W _ZStneIcSt11char_traitsIcEEbRKSt19istreambuf_iteratorIT_T0_ES7_
0000000000048bb8 W _ZStneIcSt11char_traitsIcESaIcEEbRKNSt7__cxx1112basic_stringIT_T0_T1_EEPKS5_
00000000000cc1e2 W _ZStoRRSt13_Ios_FmtflagsS_
00000000000cc1c2 W _ZStorSt13_Ios_FmtflagsS_
00000000000b3848 W _ZStorSt13_Ios_OpenmodeS_
00000000000274a4 W _ZStplIcSt11char_traitsIcESaIcEENSt7__cxx1112basic_stringIT_T0_T1_EEPKS5_RKS8_
0000000000026b6f W _ZStplIcSt11char_traitsIcESaIcEENSt7__cxx1112basic_stringIT_T0_T1_EERKS8_PKS5_
000000000005b3a2 W _ZStplIcSt11char_traitsIcESaIcEENSt7__cxx1112basic_stringIT_T0_T1_EERKS8_S5_
0000000000026bf6 W _ZStplIcSt11char_traitsIcESaIcEENSt7__cxx1112basic_stringIT_T0_T1_EERKS8_SA_
00000000003137b0 V _ZTI3CGI
00000000003137c0 V _ZTI5Route
00000000000ce2a0 V _ZTS3CGI
00000000000d3500 V _ZTS5Route
0000000000313770 V _ZTV3CGI
0000000000313790 V _ZTV5Route
                 U _ZTVN10__cxxabiv117__class_type_infoE@@CXXABI_1.3
                 U _ZdlPv
0000000000025bb9 W _ZdlPvS_
000000000005a250 T _ZlsRSoRK19ServerConfiguration
0000000000055b19 T _ZlsRSoRK5Route
                 U _Znam
                 U _Znwm
0000000000025ba7 W _ZnwmPv
000000000010a6d4 r __FRAME_END__
00000000000fa180 r __GNU_EH_FRAME_HDR
000000000032f100 D __TMC_END__
                 U __asan_after_dynamic_init
                 U __asan_before_dynamic_init
                 U __asan_handle_no_return
                 U __asan_init
000000000032f240 B __asan_option_detect_stack_use_after_return
                 U __asan_poison_stack_memory
                 U __asan_register_globals
                 U __asan_report_load1
                 U __asan_report_load16
                 U __asan_report_load4
                 U __asan_report_load8
                 U __asan_report_load_n
                 U __asan_report_store1
                 U __asan_report_store16
                 U __asan_report_store2
                 U __asan_report_store4
                 U __asan_report_store8
                 U __asan_report_store_n
                 U __asan_stack_free_5
                 U __asan_stack_free_6
                 U __asan_stack_free_7
                 U __asan_stack_malloc_0
                 U __asan_stack_malloc_1
                 U __asan_stack_malloc_2
                 U __asan_stack_malloc_3
                 U __asan_stack_malloc_4
                 U __asan_stack_malloc_5
                 U __asan_stack_malloc_6
                 U __asan_stack_malloc_7
                 U __asan_unpoison_stack_memory
                 U __asan_unregister_globals
                 U __asan_version_mismatch_check_v8
000000000032f100 B __bss_start
                 U __cxa_atexit
                 U __cxa_begin_catch@@CXXABI_1.3
                 U __cxa_call_unexpected@@CXXABI_1.3
                 U __cxa_end_catch@@CXXABI_1.3
                 w __cxa_finalize@@GLIBC_2.2.5
                 U __cxa_rethrow@@CXXABI_1.3
0000000000314000 D __data_start
0000000000023e70 t __do_global_dtors_aux
0000000000313768 t __do_global_dtors_aux_fini_array_entry
0000000000314008 D __dso_handle
0000000000313680 t __frame_dummy_init_array_entry
                 w __gmon_start__
                 U __gxx_personality_v0@@CXXABI_1.3
00000000003136f8 t __init_array_end
0000000000313610 t __init_array_start
00000000000cd810 T __libc_csu_fini
00000000000cd7a0 T __libc_csu_init
                 U __libc_start_main@@GLIBC_2.2.5
0000000000313608 D __local_asan_preinit
000000000032f740 B __odr_asan._ZN5Utils11whitespacesE
000000000032f4a0 B __odr_asan.webserv
                 U __stack_chk_fail@@GLIBC_2.4
00000000000cd820 T __stat
                 U __xstat
000000000032f100 D _edata
000000000032f7a0 B _end
00000000000cd830 T _fini
0000000000023238 T _init
0000000000023db0 T _start
                 U accept
                 U atof@@GLIBC_2.2.5
                 U atoi
                 U bind@@GLIBC_2.2.5
                 U close@@GLIBC_2.2.5
                 U closedir@@GLIBC_2.2.5
000000000032f244 b completed.7698
0000000000314000 W data_start
0000000000023de0 t deregister_tm_clones
                 U difftime@@GLIBC_2.2.5
                 U dup2@@GLIBC_2.2.5
                 U dup@@GLIBC_2.2.5
                 U execve@@GLIBC_2.2.5
                 U exit@@GLIBC_2.2.5
                 U fcntl@@GLIBC_2.2.5
                 U fileno@@GLIBC_2.2.5
                 U fork
0000000000023eb0 t frame_dummy
                 U gettimeofday@@GLIBC_2.2.5
                 U gmtime
                 U htons@@GLIBC_2.2.5
                 U inet_addr@@GLIBC_2.2.5
                 U isalnum@@GLIBC_2.2.5
                 U isalpha@@GLIBC_2.2.5
                 U isspace@@GLIBC_2.2.5
                 U listen@@GLIBC_2.2.5
                 U localtime
                 U lseek@@GLIBC_2.2.5
000000000003c2ea T main
                 U memcmp
                 U memcpy
                 U memmove
                 U memset
                 U opendir
                 U read
                 U readdir
                 U recv
0000000000023e20 t register_tm_clones
                 U remove@@GLIBC_2.2.5
                 U select@@GLIBC_2.2.5
                 U send
                 U setsockopt@@GLIBC_2.2.5
                 U signal
                 U socket@@GLIBC_2.2.5
00000000000cd820 t stat
                 U strcpy
                 U strftime@@GLIBC_2.2.5
                 U strlen
                 U strtol
                 U time
                 U tmpfile@@GLIBC_2.2.5
                 U tolower@@GLIBC_2.2.5
                 U toupper@@GLIBC_2.2.5
                 U waitpid
000000000032f320 B webserv
                 U write
